	.text
	.file	"<string>"
	.p2align	4, 0x90         # -- Begin function idris_int_eq
	.type	.Lidris_int_eq,@function
.Lidris_int_eq:                         # @idris_int_eq
	.cfi_startproc
# %bb.0:                                # %idris_int_eq.entry
	pushq	%rax
	.cfi_def_cfa_offset 16
	movq	(%rdi), %rax
	cmpq	$6, %rax
	jle	.LBB0_1
# %bb.11:                               # %idris_int_eq.entry
	cmpq	$10, %rax
	jg	.LBB0_17
# %bb.12:                               # %idris_int_eq.entry
	cmpq	$8, %rax
	jg	.LBB0_15
# %bb.13:                               # %idris_int_eq.entry
	cmpq	$7, %rax
	je	.LBB0_23
# %bb.14:                               # %idris_int_eq.entry
	cmpq	$8, %rax
	je	.LBB0_23
	jmp	.LBB0_20
.LBB0_1:                                # %idris_int_eq.entry
	cmpq	$2, %rax
	jle	.LBB0_2
# %bb.6:                                # %idris_int_eq.entry
	cmpq	$4, %rax
	jg	.LBB0_9
# %bb.7:                                # %idris_int_eq.entry
	cmpq	$3, %rax
	je	.LBB0_23
# %bb.8:                                # %idris_int_eq.entry
	cmpq	$4, %rax
	je	.LBB0_23
	jmp	.LBB0_20
.LBB0_17:                               # %idris_int_eq.entry
	cmpq	$12, %rax
	jg	.LBB0_21
# %bb.18:                               # %idris_int_eq.entry
	cmpq	$11, %rax
	je	.LBB0_23
# %bb.19:                               # %idris_int_eq.entry
	cmpq	$12, %rax
	je	.LBB0_23
	jmp	.LBB0_20
.LBB0_2:                                # %idris_int_eq.entry
	testq	%rax, %rax
	je	.LBB0_23
# %bb.3:                                # %idris_int_eq.entry
	cmpq	$1, %rax
	je	.LBB0_23
# %bb.4:                                # %idris_int_eq.entry
	cmpq	$2, %rax
	jne	.LBB0_20
# %bb.5:                                # %block.CGrInt.13
	movq	8(%rdi), %rax
	jmp	.LBB0_24
.LBB0_9:                                # %idris_int_eq.entry
	cmpq	$5, %rax
	je	.LBB0_23
# %bb.10:                               # %idris_int_eq.entry
	cmpq	$6, %rax
	je	.LBB0_23
	jmp	.LBB0_20
.LBB0_15:                               # %idris_int_eq.entry
	cmpq	$9, %rax
	je	.LBB0_23
# %bb.16:                               # %idris_int_eq.entry
	cmpq	$10, %rax
	je	.LBB0_23
	jmp	.LBB0_20
.LBB0_21:                               # %idris_int_eq.entry
	cmpq	$13, %rax
	je	.LBB0_23
# %bb.22:                               # %idris_int_eq.entry
	cmpq	$14, %rax
	jne	.LBB0_20
.LBB0_23:                               # %"block.Cidr_{U_Prelude.Show.{Data.Vect.@Prelude.Show.Show$Vect len elem:!show:0_lam_28}_1}.105"
                                        # implicit-def: $rax
.LBB0_24:                               # %block.exit.112
	xorl	%edx, %edx
	cmpq	8(%rsi), %rax
	sete	%dl
	movl	$2, %eax
	popq	%rcx
	.cfi_def_cfa_offset 8
	retq
.LBB0_20:                               # %error_block
	.cfi_def_cfa_offset 16
	movl	$666, %edi              # imm = 0x29A
	callq	_prim_int_print
.Lfunc_end0:
	.size	.Lidris_int_eq, .Lfunc_end0-.Lidris_int_eq
	.cfi_endproc
                                        # -- End function
	.p2align	4, 0x90         # -- Begin function idris_int_lt
	.type	.Lidris_int_lt,@function
.Lidris_int_lt:                         # @idris_int_lt
	.cfi_startproc
# %bb.0:                                # %idris_int_lt.entry
	pushq	%rax
	.cfi_def_cfa_offset 16
	movq	(%rdi), %rax
	cmpq	$6, %rax
	jle	.LBB1_1
# %bb.11:                               # %idris_int_lt.entry
	cmpq	$10, %rax
	jg	.LBB1_17
# %bb.12:                               # %idris_int_lt.entry
	cmpq	$8, %rax
	jg	.LBB1_15
# %bb.13:                               # %idris_int_lt.entry
	cmpq	$7, %rax
	je	.LBB1_23
# %bb.14:                               # %idris_int_lt.entry
	cmpq	$8, %rax
	je	.LBB1_23
	jmp	.LBB1_20
.LBB1_1:                                # %idris_int_lt.entry
	cmpq	$2, %rax
	jle	.LBB1_2
# %bb.6:                                # %idris_int_lt.entry
	cmpq	$4, %rax
	jg	.LBB1_9
# %bb.7:                                # %idris_int_lt.entry
	cmpq	$3, %rax
	je	.LBB1_23
# %bb.8:                                # %idris_int_lt.entry
	cmpq	$4, %rax
	je	.LBB1_23
	jmp	.LBB1_20
.LBB1_17:                               # %idris_int_lt.entry
	cmpq	$12, %rax
	jg	.LBB1_21
# %bb.18:                               # %idris_int_lt.entry
	cmpq	$11, %rax
	je	.LBB1_23
# %bb.19:                               # %idris_int_lt.entry
	cmpq	$12, %rax
	je	.LBB1_23
	jmp	.LBB1_20
.LBB1_2:                                # %idris_int_lt.entry
	testq	%rax, %rax
	je	.LBB1_23
# %bb.3:                                # %idris_int_lt.entry
	cmpq	$1, %rax
	je	.LBB1_23
# %bb.4:                                # %idris_int_lt.entry
	cmpq	$2, %rax
	jne	.LBB1_20
# %bb.5:                                # %block.CGrInt.137
	movq	8(%rdi), %rax
	jmp	.LBB1_24
.LBB1_9:                                # %idris_int_lt.entry
	cmpq	$5, %rax
	je	.LBB1_23
# %bb.10:                               # %idris_int_lt.entry
	cmpq	$6, %rax
	je	.LBB1_23
	jmp	.LBB1_20
.LBB1_15:                               # %idris_int_lt.entry
	cmpq	$9, %rax
	je	.LBB1_23
# %bb.16:                               # %idris_int_lt.entry
	cmpq	$10, %rax
	je	.LBB1_23
	jmp	.LBB1_20
.LBB1_21:                               # %idris_int_lt.entry
	cmpq	$13, %rax
	je	.LBB1_23
# %bb.22:                               # %idris_int_lt.entry
	cmpq	$14, %rax
	jne	.LBB1_20
.LBB1_23:                               # %"block.Cidr_{U_Prelude.Show.{Data.Vect.@Prelude.Show.Show$Vect len elem:!show:0_lam_28}_1}.229"
                                        # implicit-def: $rax
.LBB1_24:                               # %block.exit.236
	xorl	%edx, %edx
	cmpq	8(%rsi), %rax
	setl	%dl
	movl	$2, %eax
	popq	%rcx
	.cfi_def_cfa_offset 8
	retq
.LBB1_20:                               # %error_block
	.cfi_def_cfa_offset 16
	movl	$666, %edi              # imm = 0x29A
	callq	_prim_int_print
.Lfunc_end1:
	.size	.Lidris_int_lt, .Lfunc_end1-.Lidris_int_lt
	.cfi_endproc
                                        # -- End function
	.p2align	4, 0x90         # -- Begin function idris_str_concat
	.type	.Lidris_str_concat,@function
.Lidris_str_concat:                     # @idris_str_concat
	.cfi_startproc
# %bb.0:                                # %idris_str_concat.entry
	pushq	%rax
	.cfi_def_cfa_offset 16
	movq	(%rdi), %rax
	cmpq	$6, %rax
	jle	.LBB2_1
# %bb.10:                               # %idris_str_concat.entry
	cmpq	$10, %rax
	jg	.LBB2_16
# %bb.11:                               # %idris_str_concat.entry
	cmpq	$8, %rax
	jg	.LBB2_14
# %bb.12:                               # %idris_str_concat.entry
	cmpq	$7, %rax
	je	.LBB2_22
# %bb.13:                               # %idris_str_concat.entry
	cmpq	$8, %rax
	je	.LBB2_22
	jmp	.LBB2_19
.LBB2_1:                                # %idris_str_concat.entry
	cmpq	$2, %rax
	jle	.LBB2_2
# %bb.5:                                # %idris_str_concat.entry
	cmpq	$4, %rax
	jg	.LBB2_8
# %bb.6:                                # %idris_str_concat.entry
	cmpq	$3, %rax
	jne	.LBB2_7
# %bb.23:                               # %block.CGrString.509
	movq	8(%rdi), %rdi
	jmp	.LBB2_24
.LBB2_16:                               # %idris_str_concat.entry
	cmpq	$12, %rax
	jg	.LBB2_20
# %bb.17:                               # %idris_str_concat.entry
	cmpq	$11, %rax
	je	.LBB2_22
# %bb.18:                               # %idris_str_concat.entry
	cmpq	$12, %rax
	je	.LBB2_22
	jmp	.LBB2_19
.LBB2_2:                                # %idris_str_concat.entry
	testq	%rax, %rax
	je	.LBB2_22
# %bb.3:                                # %idris_str_concat.entry
	cmpq	$1, %rax
	je	.LBB2_22
# %bb.4:                                # %idris_str_concat.entry
	cmpq	$2, %rax
	je	.LBB2_22
	jmp	.LBB2_19
.LBB2_8:                                # %idris_str_concat.entry
	cmpq	$5, %rax
	je	.LBB2_22
# %bb.9:                                # %idris_str_concat.entry
	cmpq	$6, %rax
	je	.LBB2_22
	jmp	.LBB2_19
.LBB2_14:                               # %idris_str_concat.entry
	cmpq	$9, %rax
	je	.LBB2_22
# %bb.15:                               # %idris_str_concat.entry
	cmpq	$10, %rax
	je	.LBB2_22
	jmp	.LBB2_19
.LBB2_20:                               # %idris_str_concat.entry
	cmpq	$13, %rax
	je	.LBB2_22
# %bb.21:                               # %idris_str_concat.entry
	cmpq	$14, %rax
	je	.LBB2_22
	jmp	.LBB2_19
.LBB2_7:                                # %idris_str_concat.entry
	cmpq	$4, %rax
	jne	.LBB2_19
.LBB2_22:                               # %"block.Cidr_{U_Prelude.Show.{Data.Vect.@Prelude.Show.Show$Vect len elem:!show:0_lam_28}_1}.594"
                                        # implicit-def: $rdi
.LBB2_24:                               # %block.exit.601
	movq	(%rsi), %rax
	cmpq	$6, %rax
	jle	.LBB2_25
# %bb.34:                               # %block.exit.601
	cmpq	$10, %rax
	jg	.LBB2_40
# %bb.35:                               # %block.exit.601
	cmpq	$8, %rax
	jg	.LBB2_38
# %bb.36:                               # %block.exit.601
	cmpq	$7, %rax
	je	.LBB2_45
# %bb.37:                               # %block.exit.601
	cmpq	$8, %rax
	je	.LBB2_45
	jmp	.LBB2_19
.LBB2_25:                               # %block.exit.601
	cmpq	$2, %rax
	jle	.LBB2_26
# %bb.29:                               # %block.exit.601
	cmpq	$4, %rax
	jg	.LBB2_32
# %bb.30:                               # %block.exit.601
	cmpq	$3, %rax
	jne	.LBB2_31
# %bb.46:                               # %block.CGrString.623
	movq	8(%rsi), %rsi
	jmp	.LBB2_47
.LBB2_40:                               # %block.exit.601
	cmpq	$12, %rax
	jg	.LBB2_43
# %bb.41:                               # %block.exit.601
	cmpq	$11, %rax
	je	.LBB2_45
# %bb.42:                               # %block.exit.601
	cmpq	$12, %rax
	je	.LBB2_45
	jmp	.LBB2_19
.LBB2_26:                               # %block.exit.601
	testq	%rax, %rax
	je	.LBB2_45
# %bb.27:                               # %block.exit.601
	cmpq	$1, %rax
	je	.LBB2_45
# %bb.28:                               # %block.exit.601
	cmpq	$2, %rax
	je	.LBB2_45
	jmp	.LBB2_19
.LBB2_32:                               # %block.exit.601
	cmpq	$5, %rax
	je	.LBB2_45
# %bb.33:                               # %block.exit.601
	cmpq	$6, %rax
	je	.LBB2_45
	jmp	.LBB2_19
.LBB2_38:                               # %block.exit.601
	cmpq	$9, %rax
	je	.LBB2_45
# %bb.39:                               # %block.exit.601
	cmpq	$10, %rax
	je	.LBB2_45
	jmp	.LBB2_19
.LBB2_43:                               # %block.exit.601
	cmpq	$13, %rax
	je	.LBB2_45
# %bb.44:                               # %block.exit.601
	cmpq	$14, %rax
	je	.LBB2_45
.LBB2_19:                               # %error_block
	movl	$666, %edi              # imm = 0x29A
	callq	_prim_int_print
.LBB2_31:                               # %block.exit.601
	cmpq	$4, %rax
	jne	.LBB2_19
.LBB2_45:                               # %"block.Cidr_{U_Prelude.Show.{Data.Vect.@Prelude.Show.Show$Vect len elem:!show:0_lam_28}_1}.708"
                                        # implicit-def: $rsi
.LBB2_47:                               # %block.exit.715
	callq	_prim_string_concat
	movq	%rax, %rcx
	movl	$3, %eax
	movq	%rcx, %rdx
	popq	%rcx
	.cfi_def_cfa_offset 8
	retq
.Lfunc_end2:
	.size	.Lidris_str_concat, .Lfunc_end2-.Lidris_str_concat
	.cfi_endproc
                                        # -- End function
	.p2align	4, 0x90         # -- Begin function idris_str_eq
	.type	.Lidris_str_eq,@function
.Lidris_str_eq:                         # @idris_str_eq
	.cfi_startproc
# %bb.0:                                # %idris_str_eq.entry
	pushq	%rax
	.cfi_def_cfa_offset 16
	movq	(%rdi), %rax
	cmpq	$6, %rax
	jle	.LBB3_1
# %bb.10:                               # %idris_str_eq.entry
	cmpq	$10, %rax
	jg	.LBB3_16
# %bb.11:                               # %idris_str_eq.entry
	cmpq	$8, %rax
	jg	.LBB3_14
# %bb.12:                               # %idris_str_eq.entry
	cmpq	$7, %rax
	je	.LBB3_22
# %bb.13:                               # %idris_str_eq.entry
	cmpq	$8, %rax
	je	.LBB3_22
	jmp	.LBB3_19
.LBB3_1:                                # %idris_str_eq.entry
	cmpq	$2, %rax
	jle	.LBB3_2
# %bb.5:                                # %idris_str_eq.entry
	cmpq	$4, %rax
	jg	.LBB3_8
# %bb.6:                                # %idris_str_eq.entry
	cmpq	$3, %rax
	jne	.LBB3_7
# %bb.23:                               # %block.CGrString.739
	movq	8(%rdi), %rdi
	jmp	.LBB3_24
.LBB3_16:                               # %idris_str_eq.entry
	cmpq	$12, %rax
	jg	.LBB3_20
# %bb.17:                               # %idris_str_eq.entry
	cmpq	$11, %rax
	je	.LBB3_22
# %bb.18:                               # %idris_str_eq.entry
	cmpq	$12, %rax
	je	.LBB3_22
	jmp	.LBB3_19
.LBB3_2:                                # %idris_str_eq.entry
	testq	%rax, %rax
	je	.LBB3_22
# %bb.3:                                # %idris_str_eq.entry
	cmpq	$1, %rax
	je	.LBB3_22
# %bb.4:                                # %idris_str_eq.entry
	cmpq	$2, %rax
	je	.LBB3_22
	jmp	.LBB3_19
.LBB3_8:                                # %idris_str_eq.entry
	cmpq	$5, %rax
	je	.LBB3_22
# %bb.9:                                # %idris_str_eq.entry
	cmpq	$6, %rax
	je	.LBB3_22
	jmp	.LBB3_19
.LBB3_14:                               # %idris_str_eq.entry
	cmpq	$9, %rax
	je	.LBB3_22
# %bb.15:                               # %idris_str_eq.entry
	cmpq	$10, %rax
	je	.LBB3_22
	jmp	.LBB3_19
.LBB3_20:                               # %idris_str_eq.entry
	cmpq	$13, %rax
	je	.LBB3_22
# %bb.21:                               # %idris_str_eq.entry
	cmpq	$14, %rax
	je	.LBB3_22
.LBB3_19:                               # %error_block
	movl	$666, %edi              # imm = 0x29A
	callq	_prim_int_print
.LBB3_7:                                # %idris_str_eq.entry
	cmpq	$4, %rax
	jne	.LBB3_19
.LBB3_22:                               # %"block.Cidr_{U_Prelude.Show.{Data.Vect.@Prelude.Show.Show$Vect len elem:!show:0_lam_28}_1}.824"
                                        # implicit-def: $rdi
.LBB3_24:                               # %block.exit.831
	movq	8(%rsi), %rsi
	callq	_prim_string_eq
	movq	%rax, %rcx
	movl	$2, %eax
	movq	%rcx, %rdx
	popq	%rcx
	.cfi_def_cfa_offset 8
	retq
.Lfunc_end3:
	.size	.Lidris_str_eq, .Lfunc_end3-.Lidris_str_eq
	.cfi_endproc
                                        # -- End function
	.p2align	4, 0x90         # -- Begin function idris_str_head
	.type	.Lidris_str_head,@function
.Lidris_str_head:                       # @idris_str_head
	.cfi_startproc
# %bb.0:                                # %idris_str_head.entry
	pushq	%rax
	.cfi_def_cfa_offset 16
	movq	(%rdi), %rax
	cmpq	$6, %rax
	jle	.LBB4_1
# %bb.10:                               # %idris_str_head.entry
	cmpq	$10, %rax
	jg	.LBB4_16
# %bb.11:                               # %idris_str_head.entry
	cmpq	$8, %rax
	jg	.LBB4_14
# %bb.12:                               # %idris_str_head.entry
	cmpq	$7, %rax
	je	.LBB4_22
# %bb.13:                               # %idris_str_head.entry
	cmpq	$8, %rax
	je	.LBB4_22
	jmp	.LBB4_19
.LBB4_1:                                # %idris_str_head.entry
	cmpq	$2, %rax
	jle	.LBB4_2
# %bb.5:                                # %idris_str_head.entry
	cmpq	$4, %rax
	jg	.LBB4_8
# %bb.6:                                # %idris_str_head.entry
	cmpq	$3, %rax
	jne	.LBB4_7
# %bb.23:                               # %block.CGrString.863
	movq	8(%rdi), %rdi
	jmp	.LBB4_24
.LBB4_16:                               # %idris_str_head.entry
	cmpq	$12, %rax
	jg	.LBB4_20
# %bb.17:                               # %idris_str_head.entry
	cmpq	$11, %rax
	je	.LBB4_22
# %bb.18:                               # %idris_str_head.entry
	cmpq	$12, %rax
	je	.LBB4_22
	jmp	.LBB4_19
.LBB4_2:                                # %idris_str_head.entry
	testq	%rax, %rax
	je	.LBB4_22
# %bb.3:                                # %idris_str_head.entry
	cmpq	$1, %rax
	je	.LBB4_22
# %bb.4:                                # %idris_str_head.entry
	cmpq	$2, %rax
	je	.LBB4_22
	jmp	.LBB4_19
.LBB4_8:                                # %idris_str_head.entry
	cmpq	$5, %rax
	je	.LBB4_22
# %bb.9:                                # %idris_str_head.entry
	cmpq	$6, %rax
	je	.LBB4_22
	jmp	.LBB4_19
.LBB4_14:                               # %idris_str_head.entry
	cmpq	$9, %rax
	je	.LBB4_22
# %bb.15:                               # %idris_str_head.entry
	cmpq	$10, %rax
	je	.LBB4_22
	jmp	.LBB4_19
.LBB4_20:                               # %idris_str_head.entry
	cmpq	$13, %rax
	je	.LBB4_22
# %bb.21:                               # %idris_str_head.entry
	cmpq	$14, %rax
	je	.LBB4_22
.LBB4_19:                               # %error_block
	movl	$666, %edi              # imm = 0x29A
	callq	_prim_int_print
.LBB4_7:                                # %idris_str_head.entry
	cmpq	$4, %rax
	jne	.LBB4_19
.LBB4_22:                               # %"block.Cidr_{U_Prelude.Show.{Data.Vect.@Prelude.Show.Show$Vect len elem:!show:0_lam_28}_1}.948"
                                        # implicit-def: $rdi
.LBB4_24:                               # %block.exit.955
	callq	_prim_string_head
	movq	%rax, %rcx
	movl	$2, %eax
	movq	%rcx, %rdx
	popq	%rcx
	.cfi_def_cfa_offset 8
	retq
.Lfunc_end4:
	.size	.Lidris_str_head, .Lfunc_end4-.Lidris_str_head
	.cfi_endproc
                                        # -- End function
	.p2align	4, 0x90         # -- Begin function idris_str_tail
	.type	.Lidris_str_tail,@function
.Lidris_str_tail:                       # @idris_str_tail
	.cfi_startproc
# %bb.0:                                # %idris_str_tail.entry
	pushq	%rax
	.cfi_def_cfa_offset 16
	movq	(%rdi), %rax
	cmpq	$6, %rax
	jle	.LBB5_1
# %bb.10:                               # %idris_str_tail.entry
	cmpq	$10, %rax
	jg	.LBB5_16
# %bb.11:                               # %idris_str_tail.entry
	cmpq	$8, %rax
	jg	.LBB5_14
# %bb.12:                               # %idris_str_tail.entry
	cmpq	$7, %rax
	je	.LBB5_22
# %bb.13:                               # %idris_str_tail.entry
	cmpq	$8, %rax
	je	.LBB5_22
	jmp	.LBB5_19
.LBB5_1:                                # %idris_str_tail.entry
	cmpq	$2, %rax
	jle	.LBB5_2
# %bb.5:                                # %idris_str_tail.entry
	cmpq	$4, %rax
	jg	.LBB5_8
# %bb.6:                                # %idris_str_tail.entry
	cmpq	$3, %rax
	jne	.LBB5_7
# %bb.23:                               # %block.CGrString.979
	movq	8(%rdi), %rdi
	jmp	.LBB5_24
.LBB5_16:                               # %idris_str_tail.entry
	cmpq	$12, %rax
	jg	.LBB5_20
# %bb.17:                               # %idris_str_tail.entry
	cmpq	$11, %rax
	je	.LBB5_22
# %bb.18:                               # %idris_str_tail.entry
	cmpq	$12, %rax
	je	.LBB5_22
	jmp	.LBB5_19
.LBB5_2:                                # %idris_str_tail.entry
	testq	%rax, %rax
	je	.LBB5_22
# %bb.3:                                # %idris_str_tail.entry
	cmpq	$1, %rax
	je	.LBB5_22
# %bb.4:                                # %idris_str_tail.entry
	cmpq	$2, %rax
	je	.LBB5_22
	jmp	.LBB5_19
.LBB5_8:                                # %idris_str_tail.entry
	cmpq	$5, %rax
	je	.LBB5_22
# %bb.9:                                # %idris_str_tail.entry
	cmpq	$6, %rax
	je	.LBB5_22
	jmp	.LBB5_19
.LBB5_14:                               # %idris_str_tail.entry
	cmpq	$9, %rax
	je	.LBB5_22
# %bb.15:                               # %idris_str_tail.entry
	cmpq	$10, %rax
	je	.LBB5_22
	jmp	.LBB5_19
.LBB5_20:                               # %idris_str_tail.entry
	cmpq	$13, %rax
	je	.LBB5_22
# %bb.21:                               # %idris_str_tail.entry
	cmpq	$14, %rax
	je	.LBB5_22
.LBB5_19:                               # %error_block
	movl	$666, %edi              # imm = 0x29A
	callq	_prim_int_print
.LBB5_7:                                # %idris_str_tail.entry
	cmpq	$4, %rax
	jne	.LBB5_19
.LBB5_22:                               # %"block.Cidr_{U_Prelude.Show.{Data.Vect.@Prelude.Show.Show$Vect len elem:!show:0_lam_28}_1}.1064"
                                        # implicit-def: $rdi
.LBB5_24:                               # %block.exit.1071
	callq	_prim_string_tail
	movq	%rax, %rcx
	movl	$3, %eax
	movq	%rcx, %rdx
	popq	%rcx
	.cfi_def_cfa_offset 8
	retq
.Lfunc_end5:
	.size	.Lidris_str_tail, .Lfunc_end5-.Lidris_str_tail
	.cfi_endproc
                                        # -- End function
	.p2align	4, 0x90         # -- Begin function idris_str_cons
	.type	.Lidris_str_cons,@function
.Lidris_str_cons:                       # @idris_str_cons
	.cfi_startproc
# %bb.0:                                # %idris_str_cons.entry
	pushq	%rax
	.cfi_def_cfa_offset 16
	movq	(%rsi), %rax
	cmpq	$6, %rax
	jle	.LBB6_1
# %bb.10:                               # %idris_str_cons.entry
	cmpq	$10, %rax
	jg	.LBB6_16
# %bb.11:                               # %idris_str_cons.entry
	cmpq	$8, %rax
	jg	.LBB6_14
# %bb.12:                               # %idris_str_cons.entry
	cmpq	$7, %rax
	je	.LBB6_22
# %bb.13:                               # %idris_str_cons.entry
	cmpq	$8, %rax
	je	.LBB6_22
	jmp	.LBB6_19
.LBB6_1:                                # %idris_str_cons.entry
	cmpq	$2, %rax
	jle	.LBB6_2
# %bb.5:                                # %idris_str_cons.entry
	cmpq	$4, %rax
	jg	.LBB6_8
# %bb.6:                                # %idris_str_cons.entry
	cmpq	$3, %rax
	jne	.LBB6_7
# %bb.23:                               # %block.CGrString.1098
	movq	8(%rsi), %rsi
	jmp	.LBB6_24
.LBB6_16:                               # %idris_str_cons.entry
	cmpq	$12, %rax
	jg	.LBB6_20
# %bb.17:                               # %idris_str_cons.entry
	cmpq	$11, %rax
	je	.LBB6_22
# %bb.18:                               # %idris_str_cons.entry
	cmpq	$12, %rax
	je	.LBB6_22
	jmp	.LBB6_19
.LBB6_2:                                # %idris_str_cons.entry
	testq	%rax, %rax
	je	.LBB6_22
# %bb.3:                                # %idris_str_cons.entry
	cmpq	$1, %rax
	je	.LBB6_22
# %bb.4:                                # %idris_str_cons.entry
	cmpq	$2, %rax
	je	.LBB6_22
	jmp	.LBB6_19
.LBB6_8:                                # %idris_str_cons.entry
	cmpq	$5, %rax
	je	.LBB6_22
# %bb.9:                                # %idris_str_cons.entry
	cmpq	$6, %rax
	je	.LBB6_22
	jmp	.LBB6_19
.LBB6_14:                               # %idris_str_cons.entry
	cmpq	$9, %rax
	je	.LBB6_22
# %bb.15:                               # %idris_str_cons.entry
	cmpq	$10, %rax
	je	.LBB6_22
	jmp	.LBB6_19
.LBB6_20:                               # %idris_str_cons.entry
	cmpq	$13, %rax
	je	.LBB6_22
# %bb.21:                               # %idris_str_cons.entry
	cmpq	$14, %rax
	je	.LBB6_22
.LBB6_19:                               # %error_block
	movl	$666, %edi              # imm = 0x29A
	callq	_prim_int_print
.LBB6_7:                                # %idris_str_cons.entry
	cmpq	$4, %rax
	jne	.LBB6_19
.LBB6_22:                               # %"block.Cidr_{U_Prelude.Show.{Data.Vect.@Prelude.Show.Show$Vect len elem:!show:0_lam_28}_1}.1183"
                                        # implicit-def: $rsi
.LBB6_24:                               # %block.exit.1190
	callq	_prim_string_cons
	movq	%rax, %rcx
	movl	$3, %eax
	movq	%rcx, %rdx
	popq	%rcx
	.cfi_def_cfa_offset 8
	retq
.Lfunc_end6:
	.size	.Lidris_str_cons, .Lfunc_end6-.Lidris_str_cons
	.cfi_endproc
                                        # -- End function
	.globl	grinMain                # -- Begin function grinMain
	.p2align	4, 0x90
	.type	grinMain,@function
grinMain:                               # @grinMain
	.cfi_startproc
# %bb.0:                                # %grinMain.entry
	pushq	%r15
	.cfi_def_cfa_offset 16
	pushq	%r14
	.cfi_def_cfa_offset 24
	pushq	%r12
	.cfi_def_cfa_offset 32
	pushq	%rbx
	.cfi_def_cfa_offset 40
	subq	$600, %rsp              # imm = 0x258
	.cfi_def_cfa_offset 640
	.cfi_offset %rbx, -40
	.cfi_offset %r12, -32
	.cfi_offset %r14, -24
	.cfi_offset %r15, -16
	movl	$8, %r14d
	movl	$8, %eax
	lock		xaddq	%rax, _heap_ptr_(%rip)
	movq	$0, (%rax)
	movl	$8, %eax
	lock		xaddq	%rax, _heap_ptr_(%rip)
	movq	$0, (%rax)
	movl	$8, %eax
	lock		xaddq	%rax, _heap_ptr_(%rip)
	movq	$0, (%rax)
	movl	$8, %edi
	lock		xaddq	%rdi, _heap_ptr_(%rip)
	movq	$21, (%rdi)
	movl	$12, %r15d
	movl	$12, %ecx
	lock		xaddq	%rcx, _heap_ptr_(%rip)
	movq	$1, (%rcx)
	movl	$0, 8(%rcx)
	movl	$12, %edx
	lock		xaddq	%rdx, _heap_ptr_(%rip)
	movq	$1, (%rdx)
	movl	$0, 8(%rdx)
	movl	$24, %r12d
	movl	$24, %eax
	lock		xaddq	%rax, _heap_ptr_(%rip)
	movq	$4, (%rax)
	movq	%rcx, 8(%rax)
	movq	%rdx, 16(%rax)
	movl	$12, %ecx
	lock		xaddq	%rcx, _heap_ptr_(%rip)
	movq	$1, (%rcx)
	movl	$1077936128, 8(%rcx)    # imm = 0x40400000
	movl	$12, %edx
	lock		xaddq	%rdx, _heap_ptr_(%rip)
	movq	$1, (%rdx)
	movl	$0, 8(%rdx)
	movl	$24, %esi
	lock		xaddq	%rsi, _heap_ptr_(%rip)
	movq	$4, (%rsi)
	movq	%rcx, 8(%rsi)
	movq	%rdx, 16(%rsi)
	movl	$12, %ecx
	lock		xaddq	%rcx, _heap_ptr_(%rip)
	movq	$1, (%rcx)
	movl	$0, 8(%rcx)
	movl	$12, %edx
	lock		xaddq	%rdx, _heap_ptr_(%rip)
	movq	$1, (%rdx)
	movl	$1082130432, 8(%rdx)    # imm = 0x40800000
	movl	$24, %ebx
	lock		xaddq	%rbx, _heap_ptr_(%rip)
	movq	$4, (%rbx)
	movq	%rcx, 8(%rbx)
	movq	%rdx, 16(%rbx)
	movl	$8, %ecx
	lock		xaddq	%rcx, _heap_ptr_(%rip)
	movq	$16, (%rcx)
	movl	$24, %edx
	lock		xaddq	%rdx, _heap_ptr_(%rip)
	movq	$5, (%rdx)
	movq	%rbx, 8(%rdx)
	movq	%rcx, 16(%rdx)
	movl	$24, %ecx
	lock		xaddq	%rcx, _heap_ptr_(%rip)
	movq	$5, (%rcx)
	movq	%rsi, 8(%rcx)
	movq	%rdx, 16(%rcx)
	movl	$24, %esi
	lock		xaddq	%rsi, _heap_ptr_(%rip)
	movq	$5, (%rsi)
	movq	%rax, 8(%rsi)
	movq	%rcx, 16(%rsi)
	callq	".Lidr_Prelude.Interactive.printLn'"
	movl	$8, %eax
	lock		xaddq	%rax, _heap_ptr_(%rip)
	movq	$34, (%rax)
	movl	$8, %eax
	lock		xaddq	%rax, _heap_ptr_(%rip)
	movq	$0, (%rax)
	movl	$8, %eax
	lock		xaddq	%rax, _heap_ptr_(%rip)
	movq	$0, (%rax)
	movl	$8, %edi
	lock		xaddq	%rdi, _heap_ptr_(%rip)
	movq	$22, (%rdi)
	movl	$12, %ecx
	lock		xaddq	%rcx, _heap_ptr_(%rip)
	movq	$1, (%rcx)
	movl	$0, 8(%rcx)
	movl	$12, %edx
	lock		xaddq	%rdx, _heap_ptr_(%rip)
	movq	$1, (%rdx)
	movl	$0, 8(%rdx)
	movl	$24, %eax
	lock		xaddq	%rax, _heap_ptr_(%rip)
	movq	$4, (%rax)
	movq	%rcx, 8(%rax)
	movq	%rdx, 16(%rax)
	movl	$12, %ecx
	lock		xaddq	%rcx, _heap_ptr_(%rip)
	movq	$1, (%rcx)
	movl	$0, 8(%rcx)
	movl	$12, %edx
	lock		xaddq	%rdx, _heap_ptr_(%rip)
	movq	$1, (%rdx)
	movl	$0, 8(%rdx)
	movl	$24, %esi
	lock		xaddq	%rsi, _heap_ptr_(%rip)
	movq	$4, (%rsi)
	movq	%rcx, 8(%rsi)
	movq	%rdx, 16(%rsi)
	movl	$12, %ecx
	lock		xaddq	%rcx, _heap_ptr_(%rip)
	movq	$1, (%rcx)
	movl	$0, 8(%rcx)
	lock		xaddq	%r15, _heap_ptr_(%rip)
	movq	$1, (%r15)
	movl	$0, 8(%r15)
	movl	$24, %edx
	lock		xaddq	%rdx, _heap_ptr_(%rip)
	movq	$4, (%rdx)
	movq	%rcx, 8(%rdx)
	movq	%r15, 16(%rdx)
	movl	$8, %ecx
	lock		xaddq	%rcx, _heap_ptr_(%rip)
	movq	$16, (%rcx)
	movl	$24, %ebx
	lock		xaddq	%rbx, _heap_ptr_(%rip)
	movq	$5, (%rbx)
	movq	%rdx, 8(%rbx)
	movq	%rcx, 16(%rbx)
	movl	$24, %ecx
	lock		xaddq	%rcx, _heap_ptr_(%rip)
	movq	$5, (%rcx)
	movq	%rsi, 8(%rcx)
	movq	%rbx, 16(%rcx)
	lock		xaddq	%r12, _heap_ptr_(%rip)
	movq	$5, (%r12)
	movq	%rax, 8(%r12)
	movq	%rcx, 16(%r12)
	movq	%r12, %rsi
	callq	".Lidr_Prelude.Interactive.printLn'"
	movl	$8, %eax
	lock		xaddq	%rax, _heap_ptr_(%rip)
	movq	$34, (%rax)
	movl	$8, %eax
	lock		xaddq	%rax, _heap_ptr_(%rip)
	movq	$0, (%rax)
	movl	$8, %eax
	lock		xaddq	%rax, _heap_ptr_(%rip)
	movq	$0, (%rax)
	movl	$8, %ebx
	lock		xaddq	%rbx, _heap_ptr_(%rip)
	movq	$23, (%rbx)
	movl	$16, %r12d
	movl	$16, %edi
	lock		xaddq	%rdi, _heap_ptr_(%rip)
	movq	$3, (%rdi)
	movq	$str.0, 8(%rdi)
	callq	.Lidr_Prelude.Strings.trim
	movl	$16, %esi
	lock		xaddq	%rsi, _heap_ptr_(%rip)
	movq	%rax, (%rsi)
	movq	%rdx, 8(%rsi)
	movq	%rbx, %rdi
	callq	".Lidr_Prelude.Interactive.printLn'"
	movl	$8, %eax
	lock		xaddq	%rax, _heap_ptr_(%rip)
	movq	$34, (%rax)
	movl	$8, %eax
	lock		xaddq	%rax, _heap_ptr_(%rip)
	movq	$0, (%rax)
	movl	$8, %eax
	lock		xaddq	%rax, _heap_ptr_(%rip)
	movq	$0, (%rax)
	movl	$8, %edi
	lock		xaddq	%rdi, _heap_ptr_(%rip)
	movq	$23, (%rdi)
	movl	$16, %esi
	lock		xaddq	%rsi, _heap_ptr_(%rip)
	movq	$3, (%rsi)
	movq	$str.1, 8(%rsi)
	callq	".Lidr_Prelude.Interactive.printLn'"
	movl	$8, %eax
	lock		xaddq	%rax, _heap_ptr_(%rip)
	movq	$34, (%rax)
	movl	$8, %eax
	lock		xaddq	%rax, _heap_ptr_(%rip)
	movq	$0, (%rax)
	movl	$8, %eax
	lock		xaddq	%rax, _heap_ptr_(%rip)
	movq	$0, (%rax)
	movl	$8, %r15d
	lock		xaddq	%r15, _heap_ptr_(%rip)
	movq	$24, (%r15)
	movl	$8, %eax
	lock		xaddq	%rax, _heap_ptr_(%rip)
	movq	$0, (%rax)
	lock		xaddq	%r14, _heap_ptr_(%rip)
	movq	$25, (%r14)
	movl	$16, %edx
	lock		xaddq	%rdx, _heap_ptr_(%rip)
	movq	$2, (%rdx)
	movq	$0, 8(%rdx)
	lock		xaddq	%r12, _heap_ptr_(%rip)
	movq	$2, (%r12)
	movq	$10, 8(%r12)
	leaq	544(%rsp), %rdi
	movq	%r14, %rsi
	movq	%r12, %rcx
	callq	.Lidr_Main.adder
	movq	588(%rsp), %rdi
	movq	580(%rsp), %r8
	movq	572(%rsp), %rax
	movq	564(%rsp), %rcx
	movq	556(%rsp), %rbx
	movss	552(%rsp), %xmm0        # xmm0 = mem[0],zero,zero,zero
	movq	544(%rsp), %rdx
	movl	$52, %esi
	lock		xaddq	%rsi, _heap_ptr_(%rip)
	cmpq	$6, %rdx
	jle	.LBB7_1
# %bb.14:                               # %grinMain.entry
	cmpq	$10, %rdx
	jg	.LBB7_28
# %bb.15:                               # %grinMain.entry
	cmpq	$8, %rdx
	jg	.LBB7_19
# %bb.16:                               # %grinMain.entry
	cmpq	$7, %rdx
	jne	.LBB7_17
# %bb.40:                               # %block.Cidr_Prelude.Bool.True.2289.i.i
	movq	$7, (%rsi)
	jmp	.LBB7_22
.LBB7_1:                                # %grinMain.entry
	cmpq	$2, %rdx
	jle	.LBB7_2
# %bb.6:                                # %grinMain.entry
	cmpq	$4, %rdx
	jg	.LBB7_11
# %bb.7:                                # %grinMain.entry
	cmpq	$3, %rdx
	jne	.LBB7_8
# %bb.38:                               # %block.CGrString.2263.i.i
	movq	$3, (%rsi)
	movq	%rcx, 8(%rsi)
	jmp	.LBB7_22
.LBB7_28:                               # %grinMain.entry
	cmpq	$12, %rdx
	jg	.LBB7_32
# %bb.29:                               # %grinMain.entry
	cmpq	$11, %rdx
	jne	.LBB7_30
# %bb.42:                               # %"block.Cidr_{U_Main.{main_9}_1}.2315.i.i"
	movq	$11, (%rsi)
	movq	%rax, 8(%rsi)
	jmp	.LBB7_22
.LBB7_2:                                # %grinMain.entry
	testq	%rdx, %rdx
	je	.LBB7_36
# %bb.3:                                # %grinMain.entry
	cmpq	$1, %rdx
	jne	.LBB7_4
# %bb.37:                               # %block.CGrFloat.2251.i.i
	movq	$1, (%rsi)
	movss	%xmm0, 8(%rsi)
	jmp	.LBB7_22
.LBB7_19:                               # %grinMain.entry
	cmpq	$9, %rdx
	jne	.LBB7_20
# %bb.41:                               # %block.Cidr_Prelude.List.Nil.2301.i.i
	movq	$9, (%rsi)
	jmp	.LBB7_22
.LBB7_11:                               # %grinMain.entry
	cmpq	$5, %rdx
	jne	.LBB7_12
# %bb.39:                               # %"block.Cidr_Data.Vect.::.2277.i.i"
	movq	$5, (%rsi)
	jmp	.LBB7_10
.LBB7_32:                               # %grinMain.entry
	cmpq	$13, %rdx
	jne	.LBB7_33
# %bb.43:                               # %"block.Cidr_{U_Main.{printFmt_15}_1}.2329.i.i"
	movq	$13, (%rsi)
	jmp	.LBB7_10
.LBB7_17:                               # %grinMain.entry
	cmpq	$8, %rdx
	jne	.LBB7_523
# %bb.18:                               # %"block.Cidr_Prelude.List.::.2293.i.i"
	movq	$8, (%rsi)
	jmp	.LBB7_10
.LBB7_8:                                # %grinMain.entry
	cmpq	$4, %rdx
	jne	.LBB7_523
# %bb.9:                                # %block.Cidr_Builtins.MkPair.2269.i.i
	movq	$4, (%rsi)
	jmp	.LBB7_10
.LBB7_30:                               # %grinMain.entry
	cmpq	$12, %rdx
	jne	.LBB7_523
# %bb.31:                               # %"block.Cidr_{U_Main.{printFmt_14}_1}.2321.i.i"
	movq	$12, (%rsi)
.LBB7_10:                               # %block.exit.2343.i.i
	movq	%rax, 8(%rsi)
	movq	%r8, 16(%rsi)
.LBB7_22:                               # %block.exit.2343.i.i
	movq	%r15, %rdi
	callq	".Lidr_Prelude.Interactive.printLn'"
	movl	$8, %esi
	movl	$8, %eax
	lock		xaddq	%rax, _heap_ptr_(%rip)
	movq	$34, (%rax)
	movl	$8, %eax
	lock		xaddq	%rax, _heap_ptr_(%rip)
	movq	$0, (%rax)
	movl	$8, %eax
	lock		xaddq	%rax, _heap_ptr_(%rip)
	movq	$0, (%rax)
	movl	$8, %ebx
	lock		xaddq	%rbx, _heap_ptr_(%rip)
	movq	$24, (%rbx)
	movl	$8, %eax
	lock		xaddq	%rax, _heap_ptr_(%rip)
	movq	$0, (%rax)
	lock		xaddq	%rsi, _heap_ptr_(%rip)
	movq	$25, (%rsi)
	movl	$16, %ecx
	movl	$16, %edx
	lock		xaddq	%rdx, _heap_ptr_(%rip)
	movq	$2, (%rdx)
	movq	$1, 8(%rdx)
	lock		xaddq	%rcx, _heap_ptr_(%rip)
	movq	$2, (%rcx)
	movq	$10, 8(%rcx)
	leaq	488(%rsp), %rdi
	callq	.Lidr_Main.adder
	movq	532(%rsp), %rdi
	movq	524(%rsp), %r8
	movq	516(%rsp), %r9
	movq	508(%rsp), %rax
	movq	500(%rsp), %rcx
	movss	496(%rsp), %xmm0        # xmm0 = mem[0],zero,zero,zero
	movq	488(%rsp), %rdx
	movl	$52, %esi
	lock		xaddq	%rsi, _heap_ptr_(%rip)
	cmpq	$6, %rdx
	jle	.LBB7_23
# %bb.52:                               # %block.exit.2343.i.i
	cmpq	$10, %rdx
	jg	.LBB7_66
# %bb.53:                               # %block.exit.2343.i.i
	cmpq	$8, %rdx
	jg	.LBB7_57
# %bb.54:                               # %block.exit.2343.i.i
	cmpq	$7, %rdx
	jne	.LBB7_55
# %bb.78:                               # %block.Cidr_Prelude.Bool.True.2443.i.i
	movq	$7, (%rsi)
	jmp	.LBB7_60
.LBB7_23:                               # %block.exit.2343.i.i
	cmpq	$2, %rdx
	jle	.LBB7_24
# %bb.44:                               # %block.exit.2343.i.i
	cmpq	$4, %rdx
	jg	.LBB7_49
# %bb.45:                               # %block.exit.2343.i.i
	cmpq	$3, %rdx
	jne	.LBB7_46
# %bb.76:                               # %block.CGrString.2417.i.i
	movq	$3, (%rsi)
	movq	%rax, 8(%rsi)
	jmp	.LBB7_60
.LBB7_66:                               # %block.exit.2343.i.i
	cmpq	$12, %rdx
	jg	.LBB7_70
# %bb.67:                               # %block.exit.2343.i.i
	cmpq	$11, %rdx
	jne	.LBB7_68
# %bb.80:                               # %"block.Cidr_{U_Main.{main_9}_1}.2469.i.i"
	movq	$11, (%rsi)
	movq	%r9, 8(%rsi)
	jmp	.LBB7_60
.LBB7_24:                               # %block.exit.2343.i.i
	testq	%rdx, %rdx
	je	.LBB7_74
# %bb.25:                               # %block.exit.2343.i.i
	cmpq	$1, %rdx
	jne	.LBB7_26
# %bb.75:                               # %block.CGrFloat.2405.i.i
	movq	$1, (%rsi)
	movss	%xmm0, 8(%rsi)
	jmp	.LBB7_60
.LBB7_57:                               # %block.exit.2343.i.i
	cmpq	$9, %rdx
	jne	.LBB7_58
# %bb.79:                               # %block.Cidr_Prelude.List.Nil.2455.i.i
	movq	$9, (%rsi)
	jmp	.LBB7_60
.LBB7_49:                               # %block.exit.2343.i.i
	cmpq	$5, %rdx
	jne	.LBB7_50
# %bb.77:                               # %"block.Cidr_Data.Vect.::.2431.i.i"
	movq	$5, (%rsi)
	jmp	.LBB7_48
.LBB7_70:                               # %block.exit.2343.i.i
	cmpq	$13, %rdx
	jne	.LBB7_71
# %bb.81:                               # %"block.Cidr_{U_Main.{printFmt_15}_1}.2483.i.i"
	movq	$13, (%rsi)
	jmp	.LBB7_48
.LBB7_36:                               # %block.CErased.2247.i.i
	movq	$0, (%rsi)
	jmp	.LBB7_22
.LBB7_4:                                # %grinMain.entry
	cmpq	$2, %rdx
	jne	.LBB7_523
# %bb.5:                                # %block.CGrInt.2257.i.i
	movq	$2, (%rsi)
	movq	%rbx, 8(%rsi)
	jmp	.LBB7_22
.LBB7_20:                               # %grinMain.entry
	cmpq	$10, %rdx
	jne	.LBB7_523
# %bb.21:                               # %"block.Cidr_{U_Main.{adder_0}_1}.2305.i.i"
	movq	$10, (%rsi)
	movq	%rax, 8(%rsi)
	movq	%r8, 16(%rsi)
	movq	%rdi, 24(%rsi)
	jmp	.LBB7_22
.LBB7_12:                               # %grinMain.entry
	cmpq	$6, %rdx
	jne	.LBB7_523
# %bb.13:                               # %block.Cidr_Prelude.Bool.False.2285.i.i
	movq	$6, (%rsi)
	jmp	.LBB7_22
.LBB7_33:                               # %grinMain.entry
	cmpq	$14, %rdx
	jne	.LBB7_523
# %bb.34:                               # %"block.Cidr_{U_Prelude.Show.{Data.Vect.@Prelude.Show.Show$Vect len elem:!show:0_lam_28}_1}.2337.i.i"
	movq	$14, (%rsi)
	movq	%rax, 8(%rsi)
	jmp	.LBB7_22
.LBB7_55:                               # %block.exit.2343.i.i
	cmpq	$8, %rdx
	jne	.LBB7_523
# %bb.56:                               # %"block.Cidr_Prelude.List.::.2447.i.i"
	movq	$8, (%rsi)
	jmp	.LBB7_48
.LBB7_46:                               # %block.exit.2343.i.i
	cmpq	$4, %rdx
	jne	.LBB7_523
# %bb.47:                               # %block.Cidr_Builtins.MkPair.2423.i.i
	movq	$4, (%rsi)
	jmp	.LBB7_48
.LBB7_68:                               # %block.exit.2343.i.i
	cmpq	$12, %rdx
	jne	.LBB7_523
# %bb.69:                               # %"block.Cidr_{U_Main.{printFmt_14}_1}.2475.i.i"
	movq	$12, (%rsi)
.LBB7_48:                               # %block.exit.2497.i.i
	movq	%r9, 8(%rsi)
	movq	%r8, 16(%rsi)
.LBB7_60:                               # %block.exit.2497.i.i
	movl	$16, %edx
	lock		xaddq	%rdx, _heap_ptr_(%rip)
	movq	$2, (%rdx)
	movq	$15, 8(%rdx)
	leaq	432(%rsp), %rdi
	callq	".Lidr_{APPLY_0}"
	movq	476(%rsp), %rdi
	movq	468(%rsp), %r8
	movq	460(%rsp), %r9
	movq	452(%rsp), %rax
	movq	444(%rsp), %rcx
	movss	440(%rsp), %xmm0        # xmm0 = mem[0],zero,zero,zero
	movq	432(%rsp), %rdx
	movl	$52, %esi
	lock		xaddq	%rsi, _heap_ptr_(%rip)
	cmpq	$6, %rdx
	jle	.LBB7_61
# %bb.90:                               # %block.exit.2497.i.i
	cmpq	$10, %rdx
	jg	.LBB7_104
# %bb.91:                               # %block.exit.2497.i.i
	cmpq	$8, %rdx
	jg	.LBB7_95
# %bb.92:                               # %block.exit.2497.i.i
	cmpq	$7, %rdx
	jne	.LBB7_93
# %bb.116:                              # %block.Cidr_Prelude.Bool.True.2553.i.i
	movq	$7, (%rsi)
	jmp	.LBB7_98
.LBB7_61:                               # %block.exit.2497.i.i
	cmpq	$2, %rdx
	jle	.LBB7_62
# %bb.82:                               # %block.exit.2497.i.i
	cmpq	$4, %rdx
	jg	.LBB7_87
# %bb.83:                               # %block.exit.2497.i.i
	cmpq	$3, %rdx
	jne	.LBB7_84
# %bb.114:                              # %block.CGrString.2527.i.i
	movq	$3, (%rsi)
	movq	%rax, 8(%rsi)
	jmp	.LBB7_98
.LBB7_104:                              # %block.exit.2497.i.i
	cmpq	$12, %rdx
	jg	.LBB7_108
# %bb.105:                              # %block.exit.2497.i.i
	cmpq	$11, %rdx
	jne	.LBB7_106
# %bb.118:                              # %"block.Cidr_{U_Main.{main_9}_1}.2579.i.i"
	movq	$11, (%rsi)
	movq	%r9, 8(%rsi)
	jmp	.LBB7_98
.LBB7_62:                               # %block.exit.2497.i.i
	testq	%rdx, %rdx
	je	.LBB7_112
# %bb.63:                               # %block.exit.2497.i.i
	cmpq	$1, %rdx
	jne	.LBB7_64
# %bb.113:                              # %block.CGrFloat.2515.i.i
	movq	$1, (%rsi)
	movss	%xmm0, 8(%rsi)
	jmp	.LBB7_98
.LBB7_95:                               # %block.exit.2497.i.i
	cmpq	$9, %rdx
	jne	.LBB7_96
# %bb.117:                              # %block.Cidr_Prelude.List.Nil.2565.i.i
	movq	$9, (%rsi)
	jmp	.LBB7_98
.LBB7_87:                               # %block.exit.2497.i.i
	cmpq	$5, %rdx
	jne	.LBB7_88
# %bb.115:                              # %"block.Cidr_Data.Vect.::.2541.i.i"
	movq	$5, (%rsi)
	jmp	.LBB7_86
.LBB7_108:                              # %block.exit.2497.i.i
	cmpq	$13, %rdx
	jne	.LBB7_109
# %bb.119:                              # %"block.Cidr_{U_Main.{printFmt_15}_1}.2593.i.i"
	movq	$13, (%rsi)
	jmp	.LBB7_86
.LBB7_74:                               # %block.CErased.2401.i.i
	movq	$0, (%rsi)
	jmp	.LBB7_60
.LBB7_26:                               # %block.exit.2343.i.i
	cmpq	$2, %rdx
	jne	.LBB7_523
# %bb.27:                               # %block.CGrInt.2411.i.i
	movq	$2, (%rsi)
	movq	%rcx, 8(%rsi)
	jmp	.LBB7_60
.LBB7_58:                               # %block.exit.2343.i.i
	cmpq	$10, %rdx
	jne	.LBB7_523
# %bb.59:                               # %"block.Cidr_{U_Main.{adder_0}_1}.2459.i.i"
	movq	$10, (%rsi)
	movq	%r9, 8(%rsi)
	movq	%r8, 16(%rsi)
	movq	%rdi, 24(%rsi)
	jmp	.LBB7_60
.LBB7_50:                               # %block.exit.2343.i.i
	cmpq	$6, %rdx
	jne	.LBB7_523
# %bb.51:                               # %block.Cidr_Prelude.Bool.False.2439.i.i
	movq	$6, (%rsi)
	jmp	.LBB7_60
.LBB7_71:                               # %block.exit.2343.i.i
	cmpq	$14, %rdx
	jne	.LBB7_523
# %bb.72:                               # %"block.Cidr_{U_Prelude.Show.{Data.Vect.@Prelude.Show.Show$Vect len elem:!show:0_lam_28}_1}.2491.i.i"
	movq	$14, (%rsi)
	movq	%r9, 8(%rsi)
	jmp	.LBB7_60
.LBB7_93:                               # %block.exit.2497.i.i
	cmpq	$8, %rdx
	jne	.LBB7_523
# %bb.94:                               # %"block.Cidr_Prelude.List.::.2557.i.i"
	movq	$8, (%rsi)
	jmp	.LBB7_86
.LBB7_84:                               # %block.exit.2497.i.i
	cmpq	$4, %rdx
	jne	.LBB7_523
# %bb.85:                               # %block.Cidr_Builtins.MkPair.2533.i.i
	movq	$4, (%rsi)
	jmp	.LBB7_86
.LBB7_106:                              # %block.exit.2497.i.i
	cmpq	$12, %rdx
	jne	.LBB7_523
# %bb.107:                              # %"block.Cidr_{U_Main.{printFmt_14}_1}.2585.i.i"
	movq	$12, (%rsi)
.LBB7_86:                               # %block.exit.2607.i.i
	movq	%r9, 8(%rsi)
	movq	%r8, 16(%rsi)
.LBB7_98:                               # %block.exit.2607.i.i
	movq	%rbx, %rdi
	callq	".Lidr_Prelude.Interactive.printLn'"
	movl	$8, %esi
	movl	$8, %eax
	lock		xaddq	%rax, _heap_ptr_(%rip)
	movq	$34, (%rax)
	movl	$8, %eax
	lock		xaddq	%rax, _heap_ptr_(%rip)
	movq	$0, (%rax)
	movl	$8, %eax
	lock		xaddq	%rax, _heap_ptr_(%rip)
	movq	$0, (%rax)
	movl	$8, %r14d
	lock		xaddq	%r14, _heap_ptr_(%rip)
	movq	$24, (%r14)
	movl	$8, %eax
	lock		xaddq	%rax, _heap_ptr_(%rip)
	movq	$0, (%rax)
	lock		xaddq	%rsi, _heap_ptr_(%rip)
	movq	$25, (%rsi)
	movl	$16, %ecx
	movl	$16, %edx
	lock		xaddq	%rdx, _heap_ptr_(%rip)
	movq	$2, (%rdx)
	movq	$2, 8(%rdx)
	lock		xaddq	%rcx, _heap_ptr_(%rip)
	movq	$2, (%rcx)
	movq	$1, 8(%rcx)
	leaq	376(%rsp), %rdi
	callq	.Lidr_Main.adder
	movq	420(%rsp), %rdi
	movq	412(%rsp), %r8
	movq	404(%rsp), %rax
	movq	396(%rsp), %rcx
	movq	388(%rsp), %rbx
	movss	384(%rsp), %xmm0        # xmm0 = mem[0],zero,zero,zero
	movq	376(%rsp), %rdx
	movl	$52, %esi
	lock		xaddq	%rsi, _heap_ptr_(%rip)
	cmpq	$6, %rdx
	jle	.LBB7_99
# %bb.128:                              # %block.exit.2607.i.i
	cmpq	$10, %rdx
	jg	.LBB7_142
# %bb.129:                              # %block.exit.2607.i.i
	cmpq	$8, %rdx
	jg	.LBB7_133
# %bb.130:                              # %block.exit.2607.i.i
	cmpq	$7, %rdx
	jne	.LBB7_131
# %bb.154:                              # %block.Cidr_Prelude.Bool.True.2707.i.i
	movq	$7, (%rsi)
	jmp	.LBB7_136
.LBB7_99:                               # %block.exit.2607.i.i
	cmpq	$2, %rdx
	jle	.LBB7_100
# %bb.120:                              # %block.exit.2607.i.i
	cmpq	$4, %rdx
	jg	.LBB7_125
# %bb.121:                              # %block.exit.2607.i.i
	cmpq	$3, %rdx
	jne	.LBB7_122
# %bb.152:                              # %block.CGrString.2681.i.i
	movq	$3, (%rsi)
	movq	%rcx, 8(%rsi)
	jmp	.LBB7_136
.LBB7_142:                              # %block.exit.2607.i.i
	cmpq	$12, %rdx
	jg	.LBB7_146
# %bb.143:                              # %block.exit.2607.i.i
	cmpq	$11, %rdx
	jne	.LBB7_144
# %bb.156:                              # %"block.Cidr_{U_Main.{main_9}_1}.2733.i.i"
	movq	$11, (%rsi)
	movq	%rax, 8(%rsi)
	jmp	.LBB7_136
.LBB7_100:                              # %block.exit.2607.i.i
	testq	%rdx, %rdx
	je	.LBB7_150
# %bb.101:                              # %block.exit.2607.i.i
	cmpq	$1, %rdx
	jne	.LBB7_102
# %bb.151:                              # %block.CGrFloat.2669.i.i
	movq	$1, (%rsi)
	movss	%xmm0, 8(%rsi)
	jmp	.LBB7_136
.LBB7_133:                              # %block.exit.2607.i.i
	cmpq	$9, %rdx
	jne	.LBB7_134
# %bb.155:                              # %block.Cidr_Prelude.List.Nil.2719.i.i
	movq	$9, (%rsi)
	jmp	.LBB7_136
.LBB7_125:                              # %block.exit.2607.i.i
	cmpq	$5, %rdx
	jne	.LBB7_126
# %bb.153:                              # %"block.Cidr_Data.Vect.::.2695.i.i"
	movq	$5, (%rsi)
	jmp	.LBB7_124
.LBB7_146:                              # %block.exit.2607.i.i
	cmpq	$13, %rdx
	jne	.LBB7_147
# %bb.157:                              # %"block.Cidr_{U_Main.{printFmt_15}_1}.2747.i.i"
	movq	$13, (%rsi)
	jmp	.LBB7_124
.LBB7_112:                              # %block.CErased.2511.i.i
	movq	$0, (%rsi)
	jmp	.LBB7_98
.LBB7_64:                               # %block.exit.2497.i.i
	cmpq	$2, %rdx
	jne	.LBB7_523
# %bb.65:                               # %block.CGrInt.2521.i.i
	movq	$2, (%rsi)
	movq	%rcx, 8(%rsi)
	jmp	.LBB7_98
.LBB7_96:                               # %block.exit.2497.i.i
	cmpq	$10, %rdx
	jne	.LBB7_523
# %bb.97:                               # %"block.Cidr_{U_Main.{adder_0}_1}.2569.i.i"
	movq	$10, (%rsi)
	movq	%r9, 8(%rsi)
	movq	%r8, 16(%rsi)
	movq	%rdi, 24(%rsi)
	jmp	.LBB7_98
.LBB7_88:                               # %block.exit.2497.i.i
	cmpq	$6, %rdx
	jne	.LBB7_523
# %bb.89:                               # %block.Cidr_Prelude.Bool.False.2549.i.i
	movq	$6, (%rsi)
	jmp	.LBB7_98
.LBB7_109:                              # %block.exit.2497.i.i
	cmpq	$14, %rdx
	jne	.LBB7_523
# %bb.110:                              # %"block.Cidr_{U_Prelude.Show.{Data.Vect.@Prelude.Show.Show$Vect len elem:!show:0_lam_28}_1}.2601.i.i"
	movq	$14, (%rsi)
	movq	%r9, 8(%rsi)
	jmp	.LBB7_98
.LBB7_131:                              # %block.exit.2607.i.i
	cmpq	$8, %rdx
	jne	.LBB7_523
# %bb.132:                              # %"block.Cidr_Prelude.List.::.2711.i.i"
	movq	$8, (%rsi)
	jmp	.LBB7_124
.LBB7_122:                              # %block.exit.2607.i.i
	cmpq	$4, %rdx
	jne	.LBB7_523
# %bb.123:                              # %block.Cidr_Builtins.MkPair.2687.i.i
	movq	$4, (%rsi)
	jmp	.LBB7_124
.LBB7_144:                              # %block.exit.2607.i.i
	cmpq	$12, %rdx
	jne	.LBB7_523
# %bb.145:                              # %"block.Cidr_{U_Main.{printFmt_14}_1}.2739.i.i"
	movq	$12, (%rsi)
.LBB7_124:                              # %block.exit.2761.i.i
	movq	%rax, 8(%rsi)
	movq	%r8, 16(%rsi)
.LBB7_136:                              # %block.exit.2761.i.i
	movl	$16, %edx
	lock		xaddq	%rdx, _heap_ptr_(%rip)
	movq	$2, (%rdx)
	movq	$4, 8(%rdx)
	leaq	320(%rsp), %rdi
	callq	".Lidr_{APPLY_0}"
	movq	364(%rsp), %rdi
	movq	356(%rsp), %r8
	movq	348(%rsp), %rax
	movq	340(%rsp), %rcx
	movq	332(%rsp), %rbx
	movss	328(%rsp), %xmm0        # xmm0 = mem[0],zero,zero,zero
	movq	320(%rsp), %rdx
	movl	$52, %esi
	lock		xaddq	%rsi, _heap_ptr_(%rip)
	cmpq	$6, %rdx
	jle	.LBB7_137
# %bb.166:                              # %block.exit.2761.i.i
	cmpq	$10, %rdx
	jg	.LBB7_180
# %bb.167:                              # %block.exit.2761.i.i
	cmpq	$8, %rdx
	jg	.LBB7_171
# %bb.168:                              # %block.exit.2761.i.i
	cmpq	$7, %rdx
	jne	.LBB7_169
# %bb.192:                              # %block.Cidr_Prelude.Bool.True.2817.i.i
	movq	$7, (%rsi)
	jmp	.LBB7_174
.LBB7_137:                              # %block.exit.2761.i.i
	cmpq	$2, %rdx
	jle	.LBB7_138
# %bb.158:                              # %block.exit.2761.i.i
	cmpq	$4, %rdx
	jg	.LBB7_163
# %bb.159:                              # %block.exit.2761.i.i
	cmpq	$3, %rdx
	jne	.LBB7_160
# %bb.190:                              # %block.CGrString.2791.i.i
	movq	$3, (%rsi)
	movq	%rcx, 8(%rsi)
	jmp	.LBB7_174
.LBB7_180:                              # %block.exit.2761.i.i
	cmpq	$12, %rdx
	jg	.LBB7_184
# %bb.181:                              # %block.exit.2761.i.i
	cmpq	$11, %rdx
	jne	.LBB7_182
# %bb.194:                              # %"block.Cidr_{U_Main.{main_9}_1}.2843.i.i"
	movq	$11, (%rsi)
	movq	%rax, 8(%rsi)
	jmp	.LBB7_174
.LBB7_138:                              # %block.exit.2761.i.i
	testq	%rdx, %rdx
	je	.LBB7_188
# %bb.139:                              # %block.exit.2761.i.i
	cmpq	$1, %rdx
	jne	.LBB7_140
# %bb.189:                              # %block.CGrFloat.2779.i.i
	movq	$1, (%rsi)
	movss	%xmm0, 8(%rsi)
	jmp	.LBB7_174
.LBB7_171:                              # %block.exit.2761.i.i
	cmpq	$9, %rdx
	jne	.LBB7_172
# %bb.193:                              # %block.Cidr_Prelude.List.Nil.2829.i.i
	movq	$9, (%rsi)
	jmp	.LBB7_174
.LBB7_163:                              # %block.exit.2761.i.i
	cmpq	$5, %rdx
	jne	.LBB7_164
# %bb.191:                              # %"block.Cidr_Data.Vect.::.2805.i.i"
	movq	$5, (%rsi)
	jmp	.LBB7_162
.LBB7_184:                              # %block.exit.2761.i.i
	cmpq	$13, %rdx
	jne	.LBB7_185
# %bb.195:                              # %"block.Cidr_{U_Main.{printFmt_15}_1}.2857.i.i"
	movq	$13, (%rsi)
	jmp	.LBB7_162
.LBB7_150:                              # %block.CErased.2665.i.i
	movq	$0, (%rsi)
	jmp	.LBB7_136
.LBB7_102:                              # %block.exit.2607.i.i
	cmpq	$2, %rdx
	jne	.LBB7_523
# %bb.103:                              # %block.CGrInt.2675.i.i
	movq	$2, (%rsi)
	movq	%rbx, 8(%rsi)
	jmp	.LBB7_136
.LBB7_134:                              # %block.exit.2607.i.i
	cmpq	$10, %rdx
	jne	.LBB7_523
# %bb.135:                              # %"block.Cidr_{U_Main.{adder_0}_1}.2723.i.i"
	movq	$10, (%rsi)
	movq	%rax, 8(%rsi)
	movq	%r8, 16(%rsi)
	movq	%rdi, 24(%rsi)
	jmp	.LBB7_136
.LBB7_126:                              # %block.exit.2607.i.i
	cmpq	$6, %rdx
	jne	.LBB7_523
# %bb.127:                              # %block.Cidr_Prelude.Bool.False.2703.i.i
	movq	$6, (%rsi)
	jmp	.LBB7_136
.LBB7_147:                              # %block.exit.2607.i.i
	cmpq	$14, %rdx
	jne	.LBB7_523
# %bb.148:                              # %"block.Cidr_{U_Prelude.Show.{Data.Vect.@Prelude.Show.Show$Vect len elem:!show:0_lam_28}_1}.2755.i.i"
	movq	$14, (%rsi)
	movq	%rax, 8(%rsi)
	jmp	.LBB7_136
.LBB7_169:                              # %block.exit.2761.i.i
	cmpq	$8, %rdx
	jne	.LBB7_523
# %bb.170:                              # %"block.Cidr_Prelude.List.::.2821.i.i"
	movq	$8, (%rsi)
	jmp	.LBB7_162
.LBB7_160:                              # %block.exit.2761.i.i
	cmpq	$4, %rdx
	jne	.LBB7_523
# %bb.161:                              # %block.Cidr_Builtins.MkPair.2797.i.i
	movq	$4, (%rsi)
	jmp	.LBB7_162
.LBB7_182:                              # %block.exit.2761.i.i
	cmpq	$12, %rdx
	jne	.LBB7_523
# %bb.183:                              # %"block.Cidr_{U_Main.{printFmt_14}_1}.2849.i.i"
	movq	$12, (%rsi)
.LBB7_162:                              # %block.exit.2871.i.i
	movq	%rax, 8(%rsi)
	movq	%r8, 16(%rsi)
.LBB7_174:                              # %block.exit.2871.i.i
	movl	$16, %edx
	lock		xaddq	%rdx, _heap_ptr_(%rip)
	movq	$2, (%rdx)
	movq	$7, 8(%rdx)
	leaq	264(%rsp), %rdi
	callq	".Lidr_{APPLY_0}"
	movq	308(%rsp), %rdi
	movq	300(%rsp), %r8
	movq	292(%rsp), %rax
	movq	284(%rsp), %rcx
	movq	276(%rsp), %rbx
	movss	272(%rsp), %xmm0        # xmm0 = mem[0],zero,zero,zero
	movq	264(%rsp), %rdx
	movl	$52, %esi
	lock		xaddq	%rsi, _heap_ptr_(%rip)
	cmpq	$6, %rdx
	jle	.LBB7_175
# %bb.204:                              # %block.exit.2871.i.i
	cmpq	$10, %rdx
	jg	.LBB7_215
# %bb.205:                              # %block.exit.2871.i.i
	cmpq	$8, %rdx
	jg	.LBB7_209
# %bb.206:                              # %block.exit.2871.i.i
	cmpq	$7, %rdx
	jne	.LBB7_207
# %bb.227:                              # %block.Cidr_Prelude.Bool.True.2927.i.i
	movq	$7, (%rsi)
	jmp	.LBB7_212
.LBB7_175:                              # %block.exit.2871.i.i
	cmpq	$2, %rdx
	jle	.LBB7_176
# %bb.196:                              # %block.exit.2871.i.i
	cmpq	$4, %rdx
	jg	.LBB7_201
# %bb.197:                              # %block.exit.2871.i.i
	cmpq	$3, %rdx
	jne	.LBB7_198
# %bb.225:                              # %block.CGrString.2901.i.i
	movq	$3, (%rsi)
	movq	%rcx, 8(%rsi)
	jmp	.LBB7_212
.LBB7_215:                              # %block.exit.2871.i.i
	cmpq	$12, %rdx
	jg	.LBB7_219
# %bb.216:                              # %block.exit.2871.i.i
	cmpq	$11, %rdx
	jne	.LBB7_217
# %bb.229:                              # %"block.Cidr_{U_Main.{main_9}_1}.2953.i.i"
	movq	$11, (%rsi)
	movq	%rax, 8(%rsi)
	jmp	.LBB7_212
.LBB7_176:                              # %block.exit.2871.i.i
	testq	%rdx, %rdx
	je	.LBB7_223
# %bb.177:                              # %block.exit.2871.i.i
	cmpq	$1, %rdx
	jne	.LBB7_178
# %bb.224:                              # %block.CGrFloat.2889.i.i
	movq	$1, (%rsi)
	movss	%xmm0, 8(%rsi)
	jmp	.LBB7_212
.LBB7_209:                              # %block.exit.2871.i.i
	cmpq	$9, %rdx
	jne	.LBB7_210
# %bb.228:                              # %block.Cidr_Prelude.List.Nil.2939.i.i
	movq	$9, (%rsi)
	jmp	.LBB7_212
.LBB7_201:                              # %block.exit.2871.i.i
	cmpq	$5, %rdx
	jne	.LBB7_202
# %bb.226:                              # %"block.Cidr_Data.Vect.::.2915.i.i"
	movq	$5, (%rsi)
	jmp	.LBB7_200
.LBB7_219:                              # %block.exit.2871.i.i
	cmpq	$13, %rdx
	jne	.LBB7_220
# %bb.230:                              # %"block.Cidr_{U_Main.{printFmt_15}_1}.2967.i.i"
	movq	$13, (%rsi)
	jmp	.LBB7_200
.LBB7_188:                              # %block.CErased.2775.i.i
	movq	$0, (%rsi)
	jmp	.LBB7_174
.LBB7_140:                              # %block.exit.2761.i.i
	cmpq	$2, %rdx
	jne	.LBB7_523
# %bb.141:                              # %block.CGrInt.2785.i.i
	movq	$2, (%rsi)
	movq	%rbx, 8(%rsi)
	jmp	.LBB7_174
.LBB7_172:                              # %block.exit.2761.i.i
	cmpq	$10, %rdx
	jne	.LBB7_523
# %bb.173:                              # %"block.Cidr_{U_Main.{adder_0}_1}.2833.i.i"
	movq	$10, (%rsi)
	movq	%rax, 8(%rsi)
	movq	%r8, 16(%rsi)
	movq	%rdi, 24(%rsi)
	jmp	.LBB7_174
.LBB7_164:                              # %block.exit.2761.i.i
	cmpq	$6, %rdx
	jne	.LBB7_523
# %bb.165:                              # %block.Cidr_Prelude.Bool.False.2813.i.i
	movq	$6, (%rsi)
	jmp	.LBB7_174
.LBB7_185:                              # %block.exit.2761.i.i
	cmpq	$14, %rdx
	jne	.LBB7_523
# %bb.186:                              # %"block.Cidr_{U_Prelude.Show.{Data.Vect.@Prelude.Show.Show$Vect len elem:!show:0_lam_28}_1}.2865.i.i"
	movq	$14, (%rsi)
	movq	%rax, 8(%rsi)
	jmp	.LBB7_174
.LBB7_207:                              # %block.exit.2871.i.i
	cmpq	$8, %rdx
	jne	.LBB7_523
# %bb.208:                              # %"block.Cidr_Prelude.List.::.2931.i.i"
	movq	$8, (%rsi)
	jmp	.LBB7_200
.LBB7_198:                              # %block.exit.2871.i.i
	cmpq	$4, %rdx
	jne	.LBB7_523
# %bb.199:                              # %block.Cidr_Builtins.MkPair.2907.i.i
	movq	$4, (%rsi)
	jmp	.LBB7_200
.LBB7_217:                              # %block.exit.2871.i.i
	cmpq	$12, %rdx
	jne	.LBB7_523
# %bb.218:                              # %"block.Cidr_{U_Main.{printFmt_14}_1}.2959.i.i"
	movq	$12, (%rsi)
.LBB7_200:                              # %block.exit.2981.i.i
	movq	%rax, 8(%rsi)
	movq	%r8, 16(%rsi)
.LBB7_212:                              # %block.exit.2981.i.i
	movq	%r14, %rdi
	callq	".Lidr_Prelude.Interactive.printLn'"
	movl	$8, %ecx
	movl	$8, %eax
	lock		xaddq	%rax, _heap_ptr_(%rip)
	movq	$34, (%rax)
	movl	$8, %eax
	lock		xaddq	%rax, _heap_ptr_(%rip)
	movq	$7, (%rax)
	lock		xaddq	%rcx, _heap_ptr_(%rip)
	movq	$7, (%rcx)
	xorl	%ecx, %ecx
	testb	%cl, %cl
	jne	.LBB7_523
# %bb.213:                              # %block.Cidr_Prelude.Bool.True.13421.i.i.i
	movq	(%rax), %rax
	cmpq	$6, %rax
	je	.LBB7_214
# %bb.231:                              # %block.Cidr_Prelude.Bool.True.13421.i.i.i
	cmpq	$7, %rax
	jne	.LBB7_523
# %bb.232:                              # %block.Cidr_Prelude.Bool.True.13426.i.i.i
	movl	$7, %eax
	cmpq	$6, %rax
	je	.LBB7_234
.LBB7_235:                              # %block.exit.13429.i.i.i
	cmpq	$7, %rax
	jne	.LBB7_523
# %bb.236:                              # %block.Cidr_Prelude.Bool.True.13433.i.i.i
	movl	$27, %eax
	jmp	.LBB7_237
.LBB7_214:
	movl	$6, %eax
	cmpq	$6, %rax
	jne	.LBB7_235
.LBB7_234:
	movl	$26, %eax
.LBB7_237:                              # %"idr_Decidable.Equality.Decidable.Equality.@Decidable.Equality.DecEq$Bool:!decEq:0.exit.i.i"
	movl	$8, %ecx
	lock		xaddq	%rcx, _heap_ptr_(%rip)
	movq	%rax, %rdx
	andq	$-2, %rdx
	cmpq	$26, %rdx
	jne	.LBB7_523
# %bb.238:                              # %block.exit.3011.i.i
	movq	%rax, (%rcx)
	jne	.LBB7_523
# %bb.239:                              # %block.exit.3019.i.i
	movq	(%rcx), %rax
	cmpq	$26, %rax
	je	.LBB7_240
# %bb.241:                              # %block.exit.3019.i.i
	cmpq	$27, %rax
	jne	.LBB7_523
# %bb.242:                              # %block.Cidr_Prelude.Basics.Yes.3023.i.i
	movl	$16, %ebx
	movl	$16, %edi
	lock		xaddq	%rdi, _heap_ptr_(%rip)
	movq	$3, (%rdi)
	movq	$str.2, 8(%rdi)
	callq	.Lidris_str_head
	movl	$16, %r14d
	lock		xaddq	%r14, _heap_ptr_(%rip)
	movq	%rax, (%r14)
	movq	%rdx, 8(%r14)
	movl	$8, %eax
	lock		xaddq	%rax, _heap_ptr_(%rip)
	movq	$0, (%rax)
	movl	$16, %edi
	lock		xaddq	%rdi, _heap_ptr_(%rip)
	movq	$3, (%rdi)
	movq	$str.2, 8(%rdi)
	callq	.Lidris_str_tail
	movl	$16, %edi
	lock		xaddq	%rdi, _heap_ptr_(%rip)
	movq	%rax, (%rdi)
	movq	%rdx, 8(%rdi)
	movl	$16, %esi
	lock		xaddq	%rsi, _heap_ptr_(%rip)
	movq	$3, (%rsi)
	movq	$str.3, 8(%rsi)
	callq	.Lidris_str_eq
	lock		xaddq	%rbx, _heap_ptr_(%rip)
	movq	%rax, (%rbx)
	movq	%rdx, 8(%rbx)
	cmpq	$2, %rax
	jne	.LBB7_523
# %bb.243:                              # %block.CGrInt.3076.i.i
	xorl	%ecx, %ecx
	testq	%rdx, %rdx
	sete	%dl
	movl	$8, %eax
	lock		xaddq	%rax, _heap_ptr_(%rip)
	xorl	%esi, %esi
	testb	%sil, %sil
	jne	.LBB7_523
# %bb.244:                              # %block.exit.3092.i.i
	movb	%dl, %cl
	orq	$6, %rcx
	movq	%rcx, (%rax)
	movl	$8, %ecx
	lock		xaddq	%rcx, _heap_ptr_(%rip)
	movq	$7, (%rcx)
	xorl	%ecx, %ecx
	testb	%cl, %cl
	jne	.LBB7_523
# %bb.245:                              # %block.Cidr_Prelude.Bool.True.13421.i527.i.i
	movq	(%rax), %rax
	cmpq	$6, %rax
	je	.LBB7_246
# %bb.247:                              # %block.Cidr_Prelude.Bool.True.13421.i527.i.i
	cmpq	$7, %rax
	jne	.LBB7_523
# %bb.248:                              # %block.Cidr_Prelude.Bool.True.13426.i528.i.i
	movl	$7, %eax
	cmpq	$6, %rax
	je	.LBB7_250
.LBB7_251:                              # %block.exit.13429.i531.i.i
	cmpq	$7, %rax
	jne	.LBB7_523
# %bb.252:                              # %block.Cidr_Prelude.Bool.True.13433.i532.i.i
	movl	$27, %eax
	jmp	.LBB7_253
.LBB7_240:
	movl	$9, %eax
                                        # implicit-def: $r14
                                        # implicit-def: $rsi
	jmp	.LBB7_268
.LBB7_246:
	movl	$6, %eax
	cmpq	$6, %rax
	jne	.LBB7_251
.LBB7_250:
	movl	$26, %eax
.LBB7_253:                              # %"idr_Decidable.Equality.Decidable.Equality.@Decidable.Equality.DecEq$Bool:!decEq:0.exit536.i.i"
	movl	$8, %ecx
	lock		xaddq	%rcx, _heap_ptr_(%rip)
	movq	%rax, %rdx
	andq	$-2, %rdx
	cmpq	$26, %rdx
	jne	.LBB7_523
# %bb.254:                              # %block.exit.3109.i.i
	movq	%rax, (%rcx)
	jne	.LBB7_523
# %bb.255:                              # %block.exit.3117.i.i
	movq	(%rcx), %rax
	cmpq	$26, %rax
	je	.LBB7_256
# %bb.257:                              # %block.exit.3117.i.i
	cmpq	$27, %rax
	jne	.LBB7_523
# %bb.258:                              # %block.Cidr_Prelude.Basics.Yes.3121.i.i
	movl	$16, %r15d
	movl	$16, %edi
	lock		xaddq	%rdi, _heap_ptr_(%rip)
	movq	$3, (%rdi)
	movq	$str.2, 8(%rdi)
	callq	.Lidris_str_tail
	movl	$16, %edi
	lock		xaddq	%rdi, _heap_ptr_(%rip)
	movq	%rax, (%rdi)
	movq	%rdx, 8(%rdi)
	callq	.Lidris_str_head
	movl	$16, %ebx
	lock		xaddq	%rbx, _heap_ptr_(%rip)
	movq	%rax, (%rbx)
	movq	%rdx, 8(%rbx)
	movl	$16, %edi
	lock		xaddq	%rdi, _heap_ptr_(%rip)
	movq	$3, (%rdi)
	movq	$str.2, 8(%rdi)
	callq	.Lidris_str_tail
	movl	$16, %edi
	lock		xaddq	%rdi, _heap_ptr_(%rip)
	movq	%rax, (%rdi)
	movq	%rdx, 8(%rdi)
	callq	.Lidris_str_tail
	lock		xaddq	%r15, _heap_ptr_(%rip)
	movq	%rax, (%r15)
	movq	%rdx, 8(%r15)
	movl	$29, %eax
	jmp	.LBB7_259
.LBB7_256:
	movl	$28, %eax
                                        # implicit-def: $rbx
                                        # implicit-def: $r15
.LBB7_259:                              # %block.exit.3166.i.i
	movl	$24, %edi
	lock		xaddq	%rdi, _heap_ptr_(%rip)
	cmpq	$28, %rax
	je	.LBB7_262
# %bb.260:                              # %block.exit.3166.i.i
	cmpq	$29, %rax
	jne	.LBB7_523
# %bb.261:                              # %block.Cidr_Prelude.Strings.StrCons.3175.i.i
	movq	$29, (%rdi)
	movq	%rbx, 8(%rdi)
	movq	%r15, 16(%rdi)
	jmp	.LBB7_263
.LBB7_262:                              # %block.Cidr_Prelude.Strings.StrNil.3177.i.i
	movq	$28, (%rdi)
.LBB7_263:                              # %block.exit.3181.i.i
	callq	.Lidr__Prelude.Strings.unpack_with_36
	movl	$24, %esi
	lock		xaddq	%rsi, _heap_ptr_(%rip)
	cmpq	$9, %rax
	je	.LBB7_266
# %bb.264:                              # %block.exit.3181.i.i
	cmpq	$8, %rax
	jne	.LBB7_523
# %bb.265:                              # %"block.Cidr_Prelude.List.::.3188.i.i"
	movq	$8, (%rsi)
	movq	%rdx, 8(%rsi)
	movq	%rcx, 16(%rsi)
	jmp	.LBB7_267
.LBB7_266:                              # %block.Cidr_Prelude.List.Nil.3190.i.i
	movq	$9, (%rsi)
.LBB7_267:                              # %block.exit.3194.i.i
	movl	$8, %eax
.LBB7_268:                              # %block.exit.3197.i.i
	movl	$24, %edi
	lock		xaddq	%rdi, _heap_ptr_(%rip)
	cmpq	$9, %rax
	je	.LBB7_271
# %bb.269:                              # %block.exit.3197.i.i
	cmpq	$8, %rax
	jne	.LBB7_523
# %bb.270:                              # %"block.Cidr_Prelude.List.::.3206.i.i"
	movq	$8, (%rdi)
	movq	%r14, 8(%rdi)
	movq	%rsi, 16(%rdi)
	jmp	.LBB7_272
.LBB7_271:                              # %block.Cidr_Prelude.List.Nil.3208.i.i
	movq	$9, (%rdi)
.LBB7_272:                              # %block.exit.3212.i.i
	callq	.Lidr_Main.toFormat
	movl	$24, %esi
	lock		xaddq	%rsi, _heap_ptr_(%rip)
	cmpq	$31, %rax
	jg	.LBB7_276
# %bb.273:                              # %block.exit.3212.i.i
	cmpq	$30, %rax
	jne	.LBB7_274
# %bb.279:                              # %block.Cidr_Main.End.3219.i.i
	movq	$30, (%rsi)
	jmp	.LBB7_282
.LBB7_276:                              # %block.exit.3212.i.i
	cmpq	$32, %rax
	jne	.LBB7_277
# %bb.280:                              # %block.Cidr_Main.Number.3225.i.i
	movq	$32, (%rsi)
	jmp	.LBB7_281
.LBB7_274:                              # %block.exit.3212.i.i
	cmpq	$31, %rax
	jne	.LBB7_523
# %bb.275:                              # %block.Cidr_Main.Lit.3223.i.i
	movq	$31, (%rsi)
	movq	%rdx, 8(%rsi)
	movq	%rcx, 16(%rsi)
	jmp	.LBB7_282
.LBB7_277:                              # %block.exit.3212.i.i
	cmpq	$33, %rax
	jne	.LBB7_523
# %bb.278:                              # %block.Cidr_Main.Str.3231.i.i
	movq	$33, (%rsi)
.LBB7_281:                              # %block.exit.3237.i.i
	movq	%rdx, 8(%rsi)
.LBB7_282:                              # %block.exit.3237.i.i
	movl	$16, %edx
	lock		xaddq	%rdx, _heap_ptr_(%rip)
	movq	$3, (%rdx)
	movq	$str.3, 8(%rdx)
	leaq	64(%rsp), %rdi
	callq	.Lidr_Main.printFmt
	movq	88(%rsp), %rax
	movq	80(%rsp), %rcx
	movq	64(%rsp), %rsi
	movq	72(%rsp), %rdx
	movl	$32, %edi
	lock		xaddq	%rdi, _heap_ptr_(%rip)
	cmpq	$13, %rsi
	je	.LBB7_287
# %bb.283:                              # %block.exit.3237.i.i
	cmpq	$12, %rsi
	je	.LBB7_286
# %bb.284:                              # %block.exit.3237.i.i
	cmpq	$3, %rsi
	jne	.LBB7_523
# %bb.285:                              # %block.CGrString.3251.i.i
	movq	$3, (%rdi)
	movq	%rdx, 8(%rdi)
	jmp	.LBB7_289
.LBB7_286:                              # %"block.Cidr_{U_Main.{printFmt_14}_1}.3257.i.i"
	movq	$12, (%rdi)
	jmp	.LBB7_288
.LBB7_287:                              # %"block.Cidr_{U_Main.{printFmt_15}_1}.3265.i.i"
	movq	$13, (%rdi)
.LBB7_288:                              # %block.exit.3273.i.i
	movq	%rcx, 8(%rdi)
	movq	%rax, 16(%rdi)
.LBB7_289:                              # %block.exit.3273.i.i
	movl	$16, %ebx
	movl	$16, %esi
	lock		xaddq	%rsi, _heap_ptr_(%rip)
	movq	$3, (%rsi)
	movq	$str.4, 8(%rsi)
	callq	.Lidris_str_concat
	lock		xaddq	%rbx, _heap_ptr_(%rip)
	movq	%rax, (%rbx)
	movq	%rdx, 8(%rbx)
	movq	%rdx, %rdi
	callq	_prim_string_print
	movl	$8, %ecx
	movl	$8, %eax
	lock		xaddq	%rax, _heap_ptr_(%rip)
	movq	$15, (%rax)
	movl	$8, %eax
	lock		xaddq	%rax, _heap_ptr_(%rip)
	movq	$34, (%rax)
	movl	$8, %eax
	lock		xaddq	%rax, _heap_ptr_(%rip)
	movq	$7, (%rax)
	lock		xaddq	%rcx, _heap_ptr_(%rip)
	movq	$7, (%rcx)
	xorl	%ecx, %ecx
	testb	%cl, %cl
	jne	.LBB7_523
# %bb.290:                              # %block.Cidr_Prelude.Bool.True.13421.i540.i.i
	movq	(%rax), %rax
	cmpq	$6, %rax
	je	.LBB7_291
# %bb.292:                              # %block.Cidr_Prelude.Bool.True.13421.i540.i.i
	cmpq	$7, %rax
	jne	.LBB7_523
# %bb.293:                              # %block.Cidr_Prelude.Bool.True.13426.i541.i.i
	movl	$7, %eax
	cmpq	$6, %rax
	je	.LBB7_295
.LBB7_296:                              # %block.exit.13429.i544.i.i
	cmpq	$7, %rax
	jne	.LBB7_523
# %bb.297:                              # %block.Cidr_Prelude.Bool.True.13433.i545.i.i
	movl	$27, %eax
	jmp	.LBB7_298
.LBB7_291:
	movl	$6, %eax
	cmpq	$6, %rax
	jne	.LBB7_296
.LBB7_295:
	movl	$26, %eax
.LBB7_298:                              # %"idr_Decidable.Equality.Decidable.Equality.@Decidable.Equality.DecEq$Bool:!decEq:0.exit549.i.i"
	movl	$8, %ecx
	lock		xaddq	%rcx, _heap_ptr_(%rip)
	movq	%rax, %rdx
	andq	$-2, %rdx
	cmpq	$26, %rdx
	jne	.LBB7_523
# %bb.299:                              # %block.exit.3323.i.i
	movq	%rax, (%rcx)
	jne	.LBB7_523
# %bb.300:                              # %block.exit.3331.i.i
	movq	(%rcx), %rax
	cmpq	$26, %rax
	je	.LBB7_301
# %bb.302:                              # %block.exit.3331.i.i
	cmpq	$27, %rax
	jne	.LBB7_523
# %bb.303:                              # %block.Cidr_Prelude.Basics.Yes.3335.i.i
	movl	$16, %ebx
	movl	$16, %edi
	lock		xaddq	%rdi, _heap_ptr_(%rip)
	movq	$3, (%rdi)
	movq	$str.5, 8(%rdi)
	callq	.Lidris_str_head
	movl	$16, %r14d
	lock		xaddq	%r14, _heap_ptr_(%rip)
	movq	%rax, (%r14)
	movq	%rdx, 8(%r14)
	movl	$8, %eax
	lock		xaddq	%rax, _heap_ptr_(%rip)
	movq	$0, (%rax)
	movl	$16, %edi
	lock		xaddq	%rdi, _heap_ptr_(%rip)
	movq	$3, (%rdi)
	movq	$str.5, 8(%rdi)
	callq	.Lidris_str_tail
	movl	$16, %edi
	lock		xaddq	%rdi, _heap_ptr_(%rip)
	movq	%rax, (%rdi)
	movq	%rdx, 8(%rdi)
	movl	$16, %esi
	lock		xaddq	%rsi, _heap_ptr_(%rip)
	movq	$3, (%rsi)
	movq	$str.3, 8(%rsi)
	callq	.Lidris_str_eq
	lock		xaddq	%rbx, _heap_ptr_(%rip)
	movq	%rax, (%rbx)
	movq	%rdx, 8(%rbx)
	cmpq	$2, %rax
	jne	.LBB7_523
# %bb.304:                              # %block.CGrInt.3388.i.i
	xorl	%ecx, %ecx
	testq	%rdx, %rdx
	sete	%dl
	movl	$8, %eax
	lock		xaddq	%rax, _heap_ptr_(%rip)
	xorl	%esi, %esi
	testb	%sil, %sil
	jne	.LBB7_523
# %bb.305:                              # %block.exit.3404.i.i
	movb	%dl, %cl
	orq	$6, %rcx
	movq	%rcx, (%rax)
	movl	$8, %ecx
	lock		xaddq	%rcx, _heap_ptr_(%rip)
	movq	$7, (%rcx)
	xorl	%ecx, %ecx
	testb	%cl, %cl
	jne	.LBB7_523
# %bb.306:                              # %block.Cidr_Prelude.Bool.True.13421.i552.i.i
	movq	(%rax), %rax
	cmpq	$6, %rax
	je	.LBB7_307
# %bb.308:                              # %block.Cidr_Prelude.Bool.True.13421.i552.i.i
	cmpq	$7, %rax
	jne	.LBB7_523
# %bb.309:                              # %block.Cidr_Prelude.Bool.True.13426.i553.i.i
	movl	$7, %eax
	cmpq	$6, %rax
	je	.LBB7_311
.LBB7_312:                              # %block.exit.13429.i556.i.i
	cmpq	$7, %rax
	jne	.LBB7_523
# %bb.313:                              # %block.Cidr_Prelude.Bool.True.13433.i557.i.i
	movl	$27, %eax
	jmp	.LBB7_314
.LBB7_301:
	movl	$9, %eax
                                        # implicit-def: $r14
                                        # implicit-def: $rsi
	jmp	.LBB7_329
.LBB7_307:
	movl	$6, %eax
	cmpq	$6, %rax
	jne	.LBB7_312
.LBB7_311:
	movl	$26, %eax
.LBB7_314:                              # %"idr_Decidable.Equality.Decidable.Equality.@Decidable.Equality.DecEq$Bool:!decEq:0.exit561.i.i"
	movl	$8, %ecx
	lock		xaddq	%rcx, _heap_ptr_(%rip)
	movq	%rax, %rdx
	andq	$-2, %rdx
	cmpq	$26, %rdx
	jne	.LBB7_523
# %bb.315:                              # %block.exit.3421.i.i
	movq	%rax, (%rcx)
	jne	.LBB7_523
# %bb.316:                              # %block.exit.3429.i.i
	movq	(%rcx), %rax
	cmpq	$26, %rax
	je	.LBB7_317
# %bb.318:                              # %block.exit.3429.i.i
	cmpq	$27, %rax
	jne	.LBB7_523
# %bb.319:                              # %block.Cidr_Prelude.Basics.Yes.3433.i.i
	movl	$16, %r15d
	movl	$16, %edi
	lock		xaddq	%rdi, _heap_ptr_(%rip)
	movq	$3, (%rdi)
	movq	$str.5, 8(%rdi)
	callq	.Lidris_str_tail
	movl	$16, %edi
	lock		xaddq	%rdi, _heap_ptr_(%rip)
	movq	%rax, (%rdi)
	movq	%rdx, 8(%rdi)
	callq	.Lidris_str_head
	movl	$16, %ebx
	lock		xaddq	%rbx, _heap_ptr_(%rip)
	movq	%rax, (%rbx)
	movq	%rdx, 8(%rbx)
	movl	$16, %edi
	lock		xaddq	%rdi, _heap_ptr_(%rip)
	movq	$3, (%rdi)
	movq	$str.5, 8(%rdi)
	callq	.Lidris_str_tail
	movl	$16, %edi
	lock		xaddq	%rdi, _heap_ptr_(%rip)
	movq	%rax, (%rdi)
	movq	%rdx, 8(%rdi)
	callq	.Lidris_str_tail
	lock		xaddq	%r15, _heap_ptr_(%rip)
	movq	%rax, (%r15)
	movq	%rdx, 8(%r15)
	movl	$29, %eax
	jmp	.LBB7_320
.LBB7_317:
	movl	$28, %eax
                                        # implicit-def: $rbx
                                        # implicit-def: $r15
.LBB7_320:                              # %block.exit.3478.i.i
	movl	$24, %edi
	lock		xaddq	%rdi, _heap_ptr_(%rip)
	cmpq	$28, %rax
	je	.LBB7_323
# %bb.321:                              # %block.exit.3478.i.i
	cmpq	$29, %rax
	jne	.LBB7_523
# %bb.322:                              # %block.Cidr_Prelude.Strings.StrCons.3487.i.i
	movq	$29, (%rdi)
	movq	%rbx, 8(%rdi)
	movq	%r15, 16(%rdi)
	jmp	.LBB7_324
.LBB7_323:                              # %block.Cidr_Prelude.Strings.StrNil.3489.i.i
	movq	$28, (%rdi)
.LBB7_324:                              # %block.exit.3493.i.i
	callq	.Lidr__Prelude.Strings.unpack_with_36
	movl	$24, %esi
	lock		xaddq	%rsi, _heap_ptr_(%rip)
	cmpq	$9, %rax
	je	.LBB7_327
# %bb.325:                              # %block.exit.3493.i.i
	cmpq	$8, %rax
	jne	.LBB7_523
# %bb.326:                              # %"block.Cidr_Prelude.List.::.3500.i.i"
	movq	$8, (%rsi)
	movq	%rdx, 8(%rsi)
	movq	%rcx, 16(%rsi)
	jmp	.LBB7_328
.LBB7_327:                              # %block.Cidr_Prelude.List.Nil.3502.i.i
	movq	$9, (%rsi)
.LBB7_328:                              # %block.exit.3506.i.i
	movl	$8, %eax
.LBB7_329:                              # %block.exit.3509.i.i
	movl	$24, %edi
	lock		xaddq	%rdi, _heap_ptr_(%rip)
	cmpq	$9, %rax
	je	.LBB7_332
# %bb.330:                              # %block.exit.3509.i.i
	cmpq	$8, %rax
	jne	.LBB7_523
# %bb.331:                              # %"block.Cidr_Prelude.List.::.3518.i.i"
	movq	$8, (%rdi)
	movq	%r14, 8(%rdi)
	movq	%rsi, 16(%rdi)
	jmp	.LBB7_333
.LBB7_332:                              # %block.Cidr_Prelude.List.Nil.3520.i.i
	movq	$9, (%rdi)
.LBB7_333:                              # %block.exit.3524.i.i
	callq	.Lidr_Main.toFormat
	movl	$24, %esi
	lock		xaddq	%rsi, _heap_ptr_(%rip)
	cmpq	$31, %rax
	jg	.LBB7_337
# %bb.334:                              # %block.exit.3524.i.i
	cmpq	$30, %rax
	jne	.LBB7_335
# %bb.340:                              # %block.Cidr_Main.End.3531.i.i
	movq	$30, (%rsi)
	jmp	.LBB7_343
.LBB7_337:                              # %block.exit.3524.i.i
	cmpq	$32, %rax
	jne	.LBB7_338
# %bb.341:                              # %block.Cidr_Main.Number.3537.i.i
	movq	$32, (%rsi)
	jmp	.LBB7_342
.LBB7_335:                              # %block.exit.3524.i.i
	cmpq	$31, %rax
	jne	.LBB7_523
# %bb.336:                              # %block.Cidr_Main.Lit.3535.i.i
	movq	$31, (%rsi)
	movq	%rdx, 8(%rsi)
	movq	%rcx, 16(%rsi)
	jmp	.LBB7_343
.LBB7_338:                              # %block.exit.3524.i.i
	cmpq	$33, %rax
	jne	.LBB7_523
# %bb.339:                              # %block.Cidr_Main.Str.3543.i.i
	movq	$33, (%rsi)
.LBB7_342:                              # %block.exit.3549.i.i
	movq	%rdx, 8(%rsi)
.LBB7_343:                              # %block.exit.3549.i.i
	movl	$16, %edx
	lock		xaddq	%rdx, _heap_ptr_(%rip)
	movq	$3, (%rdx)
	movq	$str.3, 8(%rdx)
	leaq	32(%rsp), %rdi
	callq	.Lidr_Main.printFmt
	movq	56(%rsp), %rax
	movq	48(%rsp), %rcx
	movq	32(%rsp), %rdi
	movq	40(%rsp), %rdx
	movl	$32, %esi
	lock		xaddq	%rsi, _heap_ptr_(%rip)
	cmpq	$13, %rdi
	je	.LBB7_348
# %bb.344:                              # %block.exit.3549.i.i
	cmpq	$12, %rdi
	je	.LBB7_347
# %bb.345:                              # %block.exit.3549.i.i
	cmpq	$3, %rdi
	jne	.LBB7_523
# %bb.346:                              # %block.CGrString.3563.i.i
	movq	$3, (%rsi)
	movq	%rdx, 8(%rsi)
	jmp	.LBB7_350
.LBB7_348:                              # %"block.Cidr_{U_Main.{printFmt_15}_1}.3577.i.i"
	movq	$13, (%rsi)
	jmp	.LBB7_349
.LBB7_347:                              # %"block.Cidr_{U_Main.{printFmt_14}_1}.3569.i.i"
	movq	$12, (%rsi)
.LBB7_349:                              # %block.exit.3585.i.i
	movq	%rcx, 8(%rsi)
	movq	%rax, 16(%rsi)
.LBB7_350:                              # %block.exit.3585.i.i
	movl	$16, %edx
	lock		xaddq	%rdx, _heap_ptr_(%rip)
	movq	$2, (%rdx)
	movq	$42, 8(%rdx)
	leaq	208(%rsp), %rdi
	callq	".Lidr_{APPLY_0}"
	movq	252(%rsp), %rsi
	movq	244(%rsp), %r8
	movq	236(%rsp), %rax
	movq	228(%rsp), %rcx
	movq	220(%rsp), %rbx
	movss	216(%rsp), %xmm0        # xmm0 = mem[0],zero,zero,zero
	movq	208(%rsp), %rdx
	movl	$52, %edi
	lock		xaddq	%rdi, _heap_ptr_(%rip)
	cmpq	$6, %rdx
	jle	.LBB7_351
# %bb.364:                              # %block.exit.3585.i.i
	cmpq	$10, %rdx
	jg	.LBB7_375
# %bb.365:                              # %block.exit.3585.i.i
	cmpq	$8, %rdx
	jg	.LBB7_369
# %bb.366:                              # %block.exit.3585.i.i
	cmpq	$7, %rdx
	jne	.LBB7_367
# %bb.387:                              # %block.Cidr_Prelude.Bool.True.3641.i.i
	movq	$7, (%rdi)
	jmp	.LBB7_372
.LBB7_351:                              # %block.exit.3585.i.i
	cmpq	$2, %rdx
	jle	.LBB7_352
# %bb.356:                              # %block.exit.3585.i.i
	cmpq	$4, %rdx
	jg	.LBB7_361
# %bb.357:                              # %block.exit.3585.i.i
	cmpq	$3, %rdx
	jne	.LBB7_358
# %bb.385:                              # %block.CGrString.3615.i.i
	movq	$3, (%rdi)
	movq	%rcx, 8(%rdi)
	jmp	.LBB7_372
.LBB7_375:                              # %block.exit.3585.i.i
	cmpq	$12, %rdx
	jg	.LBB7_379
# %bb.376:                              # %block.exit.3585.i.i
	cmpq	$11, %rdx
	jne	.LBB7_377
# %bb.389:                              # %"block.Cidr_{U_Main.{main_9}_1}.3667.i.i"
	movq	$11, (%rdi)
	movq	%rax, 8(%rdi)
	jmp	.LBB7_372
.LBB7_352:                              # %block.exit.3585.i.i
	testq	%rdx, %rdx
	je	.LBB7_383
# %bb.353:                              # %block.exit.3585.i.i
	cmpq	$1, %rdx
	jne	.LBB7_354
# %bb.384:                              # %block.CGrFloat.3603.i.i
	movq	$1, (%rdi)
	movss	%xmm0, 8(%rdi)
	jmp	.LBB7_372
.LBB7_369:                              # %block.exit.3585.i.i
	cmpq	$9, %rdx
	jne	.LBB7_370
# %bb.388:                              # %block.Cidr_Prelude.List.Nil.3653.i.i
	movq	$9, (%rdi)
	jmp	.LBB7_372
.LBB7_361:                              # %block.exit.3585.i.i
	cmpq	$5, %rdx
	jne	.LBB7_362
# %bb.386:                              # %"block.Cidr_Data.Vect.::.3629.i.i"
	movq	$5, (%rdi)
	jmp	.LBB7_360
.LBB7_379:                              # %block.exit.3585.i.i
	cmpq	$13, %rdx
	jne	.LBB7_380
# %bb.390:                              # %"block.Cidr_{U_Main.{printFmt_15}_1}.3681.i.i"
	movq	$13, (%rdi)
	jmp	.LBB7_360
.LBB7_223:                              # %block.CErased.2885.i.i
	movq	$0, (%rsi)
	jmp	.LBB7_212
.LBB7_178:                              # %block.exit.2871.i.i
	cmpq	$2, %rdx
	jne	.LBB7_523
# %bb.179:                              # %block.CGrInt.2895.i.i
	movq	$2, (%rsi)
	movq	%rbx, 8(%rsi)
	jmp	.LBB7_212
.LBB7_210:                              # %block.exit.2871.i.i
	cmpq	$10, %rdx
	jne	.LBB7_523
# %bb.211:                              # %"block.Cidr_{U_Main.{adder_0}_1}.2943.i.i"
	movq	$10, (%rsi)
	movq	%rax, 8(%rsi)
	movq	%r8, 16(%rsi)
	movq	%rdi, 24(%rsi)
	jmp	.LBB7_212
.LBB7_202:                              # %block.exit.2871.i.i
	cmpq	$6, %rdx
	jne	.LBB7_523
# %bb.203:                              # %block.Cidr_Prelude.Bool.False.2923.i.i
	movq	$6, (%rsi)
	jmp	.LBB7_212
.LBB7_220:                              # %block.exit.2871.i.i
	cmpq	$14, %rdx
	jne	.LBB7_523
# %bb.221:                              # %"block.Cidr_{U_Prelude.Show.{Data.Vect.@Prelude.Show.Show$Vect len elem:!show:0_lam_28}_1}.2975.i.i"
	movq	$14, (%rsi)
	movq	%rax, 8(%rsi)
	jmp	.LBB7_212
.LBB7_367:                              # %block.exit.3585.i.i
	cmpq	$8, %rdx
	jne	.LBB7_523
# %bb.368:                              # %"block.Cidr_Prelude.List.::.3645.i.i"
	movq	$8, (%rdi)
	jmp	.LBB7_360
.LBB7_358:                              # %block.exit.3585.i.i
	cmpq	$4, %rdx
	jne	.LBB7_523
# %bb.359:                              # %block.Cidr_Builtins.MkPair.3621.i.i
	movq	$4, (%rdi)
	jmp	.LBB7_360
.LBB7_377:                              # %block.exit.3585.i.i
	cmpq	$12, %rdx
	jne	.LBB7_523
# %bb.378:                              # %"block.Cidr_{U_Main.{printFmt_14}_1}.3673.i.i"
	movq	$12, (%rdi)
.LBB7_360:                              # %block.exit.3695.i.i
	movq	%rax, 8(%rdi)
	movq	%r8, 16(%rdi)
.LBB7_372:                              # %block.exit.3695.i.i
	movl	$16, %ebx
	movl	$16, %esi
	lock		xaddq	%rsi, _heap_ptr_(%rip)
	movq	$3, (%rsi)
	movq	$str.4, 8(%rsi)
	callq	.Lidris_str_concat
	lock		xaddq	%rbx, _heap_ptr_(%rip)
	movq	%rax, (%rbx)
	movq	%rdx, 8(%rbx)
	movq	%rdx, %rdi
	callq	_prim_string_print
	movl	$8, %ecx
	movl	$8, %eax
	lock		xaddq	%rax, _heap_ptr_(%rip)
	movq	$15, (%rax)
	movl	$8, %eax
	lock		xaddq	%rax, _heap_ptr_(%rip)
	movq	$34, (%rax)
	movl	$8, %eax
	lock		xaddq	%rax, _heap_ptr_(%rip)
	movq	$7, (%rax)
	lock		xaddq	%rcx, _heap_ptr_(%rip)
	movq	$7, (%rcx)
	xorl	%ecx, %ecx
	testb	%cl, %cl
	jne	.LBB7_523
# %bb.373:                              # %block.Cidr_Prelude.Bool.True.13421.i565.i.i
	movq	(%rax), %rax
	cmpq	$6, %rax
	je	.LBB7_374
# %bb.391:                              # %block.Cidr_Prelude.Bool.True.13421.i565.i.i
	cmpq	$7, %rax
	jne	.LBB7_523
# %bb.392:                              # %block.Cidr_Prelude.Bool.True.13426.i566.i.i
	movl	$7, %eax
	cmpq	$6, %rax
	je	.LBB7_394
.LBB7_395:                              # %block.exit.13429.i569.i.i
	cmpq	$7, %rax
	jne	.LBB7_523
# %bb.396:                              # %block.Cidr_Prelude.Bool.True.13433.i570.i.i
	movl	$27, %eax
	jmp	.LBB7_397
.LBB7_374:
	movl	$6, %eax
	cmpq	$6, %rax
	jne	.LBB7_395
.LBB7_394:
	movl	$26, %eax
.LBB7_397:                              # %"idr_Decidable.Equality.Decidable.Equality.@Decidable.Equality.DecEq$Bool:!decEq:0.exit574.i.i"
	movl	$8, %ecx
	lock		xaddq	%rcx, _heap_ptr_(%rip)
	movq	%rax, %rdx
	andq	$-2, %rdx
	cmpq	$26, %rdx
	jne	.LBB7_523
# %bb.398:                              # %block.exit.3745.i.i
	movq	%rax, (%rcx)
	jne	.LBB7_523
# %bb.399:                              # %block.exit.3753.i.i
	movq	(%rcx), %rax
	cmpq	$26, %rax
	je	.LBB7_400
# %bb.401:                              # %block.exit.3753.i.i
	cmpq	$27, %rax
	jne	.LBB7_523
# %bb.402:                              # %block.Cidr_Prelude.Basics.Yes.3757.i.i
	movl	$16, %ebx
	movl	$16, %edi
	lock		xaddq	%rdi, _heap_ptr_(%rip)
	movq	$3, (%rdi)
	movq	$str.6, 8(%rdi)
	callq	.Lidris_str_head
	movl	$16, %r14d
	lock		xaddq	%r14, _heap_ptr_(%rip)
	movq	%rax, (%r14)
	movq	%rdx, 8(%r14)
	movl	$8, %eax
	lock		xaddq	%rax, _heap_ptr_(%rip)
	movq	$0, (%rax)
	movl	$16, %edi
	lock		xaddq	%rdi, _heap_ptr_(%rip)
	movq	$3, (%rdi)
	movq	$str.6, 8(%rdi)
	callq	.Lidris_str_tail
	movl	$16, %edi
	lock		xaddq	%rdi, _heap_ptr_(%rip)
	movq	%rax, (%rdi)
	movq	%rdx, 8(%rdi)
	movl	$16, %esi
	lock		xaddq	%rsi, _heap_ptr_(%rip)
	movq	$3, (%rsi)
	movq	$str.3, 8(%rsi)
	callq	.Lidris_str_eq
	lock		xaddq	%rbx, _heap_ptr_(%rip)
	movq	%rax, (%rbx)
	movq	%rdx, 8(%rbx)
	cmpq	$2, %rax
	jne	.LBB7_523
# %bb.403:                              # %block.CGrInt.3810.i.i
	xorl	%ecx, %ecx
	testq	%rdx, %rdx
	sete	%dl
	movl	$8, %eax
	lock		xaddq	%rax, _heap_ptr_(%rip)
	xorl	%esi, %esi
	testb	%sil, %sil
	jne	.LBB7_523
# %bb.404:                              # %block.exit.3826.i.i
	movb	%dl, %cl
	orq	$6, %rcx
	movq	%rcx, (%rax)
	movl	$8, %ecx
	lock		xaddq	%rcx, _heap_ptr_(%rip)
	movq	$7, (%rcx)
	xorl	%ecx, %ecx
	testb	%cl, %cl
	jne	.LBB7_523
# %bb.405:                              # %block.Cidr_Prelude.Bool.True.13421.i577.i.i
	movq	(%rax), %rax
	cmpq	$6, %rax
	je	.LBB7_406
# %bb.407:                              # %block.Cidr_Prelude.Bool.True.13421.i577.i.i
	cmpq	$7, %rax
	jne	.LBB7_523
# %bb.408:                              # %block.Cidr_Prelude.Bool.True.13426.i578.i.i
	movl	$7, %eax
	cmpq	$6, %rax
	je	.LBB7_410
.LBB7_411:                              # %block.exit.13429.i581.i.i
	cmpq	$7, %rax
	jne	.LBB7_523
# %bb.412:                              # %block.Cidr_Prelude.Bool.True.13433.i582.i.i
	movl	$27, %eax
	jmp	.LBB7_413
.LBB7_400:
	movl	$9, %eax
                                        # implicit-def: $r14
                                        # implicit-def: $rsi
	jmp	.LBB7_428
.LBB7_406:
	movl	$6, %eax
	cmpq	$6, %rax
	jne	.LBB7_411
.LBB7_410:
	movl	$26, %eax
.LBB7_413:                              # %"idr_Decidable.Equality.Decidable.Equality.@Decidable.Equality.DecEq$Bool:!decEq:0.exit586.i.i"
	movl	$8, %ecx
	lock		xaddq	%rcx, _heap_ptr_(%rip)
	movq	%rax, %rdx
	andq	$-2, %rdx
	cmpq	$26, %rdx
	jne	.LBB7_523
# %bb.414:                              # %block.exit.3843.i.i
	movq	%rax, (%rcx)
	jne	.LBB7_523
# %bb.415:                              # %block.exit.3851.i.i
	movq	(%rcx), %rax
	cmpq	$26, %rax
	je	.LBB7_416
# %bb.417:                              # %block.exit.3851.i.i
	cmpq	$27, %rax
	jne	.LBB7_523
# %bb.418:                              # %block.Cidr_Prelude.Basics.Yes.3855.i.i
	movl	$16, %r15d
	movl	$16, %edi
	lock		xaddq	%rdi, _heap_ptr_(%rip)
	movq	$3, (%rdi)
	movq	$str.6, 8(%rdi)
	callq	.Lidris_str_tail
	movl	$16, %edi
	lock		xaddq	%rdi, _heap_ptr_(%rip)
	movq	%rax, (%rdi)
	movq	%rdx, 8(%rdi)
	callq	.Lidris_str_head
	movl	$16, %ebx
	lock		xaddq	%rbx, _heap_ptr_(%rip)
	movq	%rax, (%rbx)
	movq	%rdx, 8(%rbx)
	movl	$16, %edi
	lock		xaddq	%rdi, _heap_ptr_(%rip)
	movq	$3, (%rdi)
	movq	$str.6, 8(%rdi)
	callq	.Lidris_str_tail
	movl	$16, %edi
	lock		xaddq	%rdi, _heap_ptr_(%rip)
	movq	%rax, (%rdi)
	movq	%rdx, 8(%rdi)
	callq	.Lidris_str_tail
	lock		xaddq	%r15, _heap_ptr_(%rip)
	movq	%rax, (%r15)
	movq	%rdx, 8(%r15)
	movl	$29, %eax
	jmp	.LBB7_419
.LBB7_416:
	movl	$28, %eax
                                        # implicit-def: $rbx
                                        # implicit-def: $r15
.LBB7_419:                              # %block.exit.3900.i.i
	movl	$24, %edi
	lock		xaddq	%rdi, _heap_ptr_(%rip)
	cmpq	$28, %rax
	je	.LBB7_422
# %bb.420:                              # %block.exit.3900.i.i
	cmpq	$29, %rax
	jne	.LBB7_523
# %bb.421:                              # %block.Cidr_Prelude.Strings.StrCons.3909.i.i
	movq	$29, (%rdi)
	movq	%rbx, 8(%rdi)
	movq	%r15, 16(%rdi)
	jmp	.LBB7_423
.LBB7_422:                              # %block.Cidr_Prelude.Strings.StrNil.3911.i.i
	movq	$28, (%rdi)
.LBB7_423:                              # %block.exit.3915.i.i
	callq	.Lidr__Prelude.Strings.unpack_with_36
	movl	$24, %esi
	lock		xaddq	%rsi, _heap_ptr_(%rip)
	cmpq	$9, %rax
	je	.LBB7_426
# %bb.424:                              # %block.exit.3915.i.i
	cmpq	$8, %rax
	jne	.LBB7_523
# %bb.425:                              # %"block.Cidr_Prelude.List.::.3922.i.i"
	movq	$8, (%rsi)
	movq	%rdx, 8(%rsi)
	movq	%rcx, 16(%rsi)
	jmp	.LBB7_427
.LBB7_426:                              # %block.Cidr_Prelude.List.Nil.3924.i.i
	movq	$9, (%rsi)
.LBB7_427:                              # %block.exit.3928.i.i
	movl	$8, %eax
.LBB7_428:                              # %block.exit.3931.i.i
	movl	$24, %edi
	lock		xaddq	%rdi, _heap_ptr_(%rip)
	cmpq	$9, %rax
	je	.LBB7_431
# %bb.429:                              # %block.exit.3931.i.i
	cmpq	$8, %rax
	jne	.LBB7_523
# %bb.430:                              # %"block.Cidr_Prelude.List.::.3940.i.i"
	movq	$8, (%rdi)
	movq	%r14, 8(%rdi)
	movq	%rsi, 16(%rdi)
	jmp	.LBB7_432
.LBB7_431:                              # %block.Cidr_Prelude.List.Nil.3942.i.i
	movq	$9, (%rdi)
.LBB7_432:                              # %block.exit.3946.i.i
	callq	.Lidr_Main.toFormat
	movl	$24, %esi
	lock		xaddq	%rsi, _heap_ptr_(%rip)
	cmpq	$31, %rax
	jg	.LBB7_436
# %bb.433:                              # %block.exit.3946.i.i
	cmpq	$30, %rax
	jne	.LBB7_434
# %bb.439:                              # %block.Cidr_Main.End.3953.i.i
	movq	$30, (%rsi)
	jmp	.LBB7_442
.LBB7_436:                              # %block.exit.3946.i.i
	cmpq	$32, %rax
	jne	.LBB7_437
# %bb.440:                              # %block.Cidr_Main.Number.3959.i.i
	movq	$32, (%rsi)
	jmp	.LBB7_441
.LBB7_434:                              # %block.exit.3946.i.i
	cmpq	$31, %rax
	jne	.LBB7_523
# %bb.435:                              # %block.Cidr_Main.Lit.3957.i.i
	movq	$31, (%rsi)
	movq	%rdx, 8(%rsi)
	movq	%rcx, 16(%rsi)
	jmp	.LBB7_442
.LBB7_437:                              # %block.exit.3946.i.i
	cmpq	$33, %rax
	jne	.LBB7_523
# %bb.438:                              # %block.Cidr_Main.Str.3965.i.i
	movq	$33, (%rsi)
.LBB7_441:                              # %block.exit.3971.i.i
	movq	%rdx, 8(%rsi)
.LBB7_442:                              # %block.exit.3971.i.i
	movl	$16, %edx
	lock		xaddq	%rdx, _heap_ptr_(%rip)
	movq	$3, (%rdx)
	movq	$str.3, 8(%rdx)
	movq	%rsp, %rdi
	callq	.Lidr_Main.printFmt
	movq	24(%rsp), %rax
	movq	16(%rsp), %rcx
	movq	(%rsp), %rdi
	movq	8(%rsp), %rdx
	movl	$32, %esi
	lock		xaddq	%rsi, _heap_ptr_(%rip)
	cmpq	$13, %rdi
	je	.LBB7_447
# %bb.443:                              # %block.exit.3971.i.i
	cmpq	$12, %rdi
	je	.LBB7_446
# %bb.444:                              # %block.exit.3971.i.i
	cmpq	$3, %rdi
	jne	.LBB7_523
# %bb.445:                              # %block.CGrString.3985.i.i
	movq	$3, (%rsi)
	movq	%rdx, 8(%rsi)
	jmp	.LBB7_449
.LBB7_447:                              # %"block.Cidr_{U_Main.{printFmt_15}_1}.3999.i.i"
	movq	$13, (%rsi)
	jmp	.LBB7_448
.LBB7_446:                              # %"block.Cidr_{U_Main.{printFmt_14}_1}.3991.i.i"
	movq	$12, (%rsi)
.LBB7_448:                              # %block.exit.4007.i.i
	movq	%rcx, 8(%rsi)
	movq	%rax, 16(%rsi)
.LBB7_449:                              # %block.exit.4007.i.i
	movl	$16, %edx
	lock		xaddq	%rdx, _heap_ptr_(%rip)
	movq	$3, (%rdx)
	movq	$str.7, 8(%rdx)
	leaq	152(%rsp), %rdi
	callq	".Lidr_{APPLY_0}"
	movq	196(%rsp), %rdi
	movq	188(%rsp), %r8
	movq	180(%rsp), %rax
	movq	172(%rsp), %rcx
	movq	164(%rsp), %rbx
	movss	160(%rsp), %xmm0        # xmm0 = mem[0],zero,zero,zero
	movq	152(%rsp), %rdx
	movl	$52, %esi
	lock		xaddq	%rsi, _heap_ptr_(%rip)
	cmpq	$6, %rdx
	jle	.LBB7_450
# %bb.463:                              # %block.exit.4007.i.i
	cmpq	$10, %rdx
	jg	.LBB7_477
# %bb.464:                              # %block.exit.4007.i.i
	cmpq	$8, %rdx
	jg	.LBB7_468
# %bb.465:                              # %block.exit.4007.i.i
	cmpq	$7, %rdx
	jne	.LBB7_466
# %bb.489:                              # %block.Cidr_Prelude.Bool.True.4063.i.i
	movq	$7, (%rsi)
	jmp	.LBB7_471
.LBB7_450:                              # %block.exit.4007.i.i
	cmpq	$2, %rdx
	jle	.LBB7_451
# %bb.455:                              # %block.exit.4007.i.i
	cmpq	$4, %rdx
	jg	.LBB7_460
# %bb.456:                              # %block.exit.4007.i.i
	cmpq	$3, %rdx
	jne	.LBB7_457
# %bb.487:                              # %block.CGrString.4037.i.i
	movq	$3, (%rsi)
	movq	%rcx, 8(%rsi)
	jmp	.LBB7_471
.LBB7_477:                              # %block.exit.4007.i.i
	cmpq	$12, %rdx
	jg	.LBB7_481
# %bb.478:                              # %block.exit.4007.i.i
	cmpq	$11, %rdx
	jne	.LBB7_479
# %bb.491:                              # %"block.Cidr_{U_Main.{main_9}_1}.4089.i.i"
	movq	$11, (%rsi)
	movq	%rax, 8(%rsi)
	jmp	.LBB7_471
.LBB7_451:                              # %block.exit.4007.i.i
	testq	%rdx, %rdx
	je	.LBB7_485
# %bb.452:                              # %block.exit.4007.i.i
	cmpq	$1, %rdx
	jne	.LBB7_453
# %bb.486:                              # %block.CGrFloat.4025.i.i
	movq	$1, (%rsi)
	movss	%xmm0, 8(%rsi)
	jmp	.LBB7_471
.LBB7_468:                              # %block.exit.4007.i.i
	cmpq	$9, %rdx
	jne	.LBB7_469
# %bb.490:                              # %block.Cidr_Prelude.List.Nil.4075.i.i
	movq	$9, (%rsi)
	jmp	.LBB7_471
.LBB7_460:                              # %block.exit.4007.i.i
	cmpq	$5, %rdx
	jne	.LBB7_461
# %bb.488:                              # %"block.Cidr_Data.Vect.::.4051.i.i"
	movq	$5, (%rsi)
	jmp	.LBB7_459
.LBB7_481:                              # %block.exit.4007.i.i
	cmpq	$13, %rdx
	jne	.LBB7_482
# %bb.492:                              # %"block.Cidr_{U_Main.{printFmt_15}_1}.4103.i.i"
	movq	$13, (%rsi)
	jmp	.LBB7_459
.LBB7_383:                              # %block.CErased.3599.i.i
	movq	$0, (%rdi)
	jmp	.LBB7_372
.LBB7_354:                              # %block.exit.3585.i.i
	cmpq	$2, %rdx
	jne	.LBB7_523
# %bb.355:                              # %block.CGrInt.3609.i.i
	movq	$2, (%rdi)
	movq	%rbx, 8(%rdi)
	jmp	.LBB7_372
.LBB7_370:                              # %block.exit.3585.i.i
	cmpq	$10, %rdx
	jne	.LBB7_523
# %bb.371:                              # %"block.Cidr_{U_Main.{adder_0}_1}.3657.i.i"
	movq	$10, (%rdi)
	movq	%rax, 8(%rdi)
	movq	%r8, 16(%rdi)
	movq	%rsi, 24(%rdi)
	jmp	.LBB7_372
.LBB7_362:                              # %block.exit.3585.i.i
	cmpq	$6, %rdx
	jne	.LBB7_523
# %bb.363:                              # %block.Cidr_Prelude.Bool.False.3637.i.i
	movq	$6, (%rdi)
	jmp	.LBB7_372
.LBB7_380:                              # %block.exit.3585.i.i
	cmpq	$14, %rdx
	jne	.LBB7_523
# %bb.381:                              # %"block.Cidr_{U_Prelude.Show.{Data.Vect.@Prelude.Show.Show$Vect len elem:!show:0_lam_28}_1}.3689.i.i"
	movq	$14, (%rdi)
	movq	%rax, 8(%rdi)
	jmp	.LBB7_372
.LBB7_466:                              # %block.exit.4007.i.i
	cmpq	$8, %rdx
	jne	.LBB7_523
# %bb.467:                              # %"block.Cidr_Prelude.List.::.4067.i.i"
	movq	$8, (%rsi)
	jmp	.LBB7_459
.LBB7_457:                              # %block.exit.4007.i.i
	cmpq	$4, %rdx
	jne	.LBB7_523
# %bb.458:                              # %block.Cidr_Builtins.MkPair.4043.i.i
	movq	$4, (%rsi)
	jmp	.LBB7_459
.LBB7_479:                              # %block.exit.4007.i.i
	cmpq	$12, %rdx
	jne	.LBB7_523
# %bb.480:                              # %"block.Cidr_{U_Main.{printFmt_14}_1}.4095.i.i"
	movq	$12, (%rsi)
.LBB7_459:                              # %block.exit.4117.i.i
	movq	%rax, 8(%rsi)
	movq	%r8, 16(%rsi)
.LBB7_471:                              # %block.exit.4117.i.i
	movl	$16, %edx
	lock		xaddq	%rdx, _heap_ptr_(%rip)
	movq	$2, (%rdx)
	movq	$97, 8(%rdx)
	leaq	96(%rsp), %rdi
	callq	".Lidr_{APPLY_0}"
	movq	140(%rsp), %rsi
	movq	132(%rsp), %r8
	movq	124(%rsp), %rax
	movq	116(%rsp), %rcx
	movq	108(%rsp), %rbx
	movss	104(%rsp), %xmm0        # xmm0 = mem[0],zero,zero,zero
	movq	96(%rsp), %rdx
	movl	$52, %edi
	lock		xaddq	%rdi, _heap_ptr_(%rip)
	cmpq	$6, %rdx
	jle	.LBB7_472
# %bb.501:                              # %block.exit.4117.i.i
	cmpq	$10, %rdx
	jg	.LBB7_509
# %bb.502:                              # %block.exit.4117.i.i
	cmpq	$8, %rdx
	jg	.LBB7_506
# %bb.503:                              # %block.exit.4117.i.i
	cmpq	$7, %rdx
	jne	.LBB7_504
# %bb.519:                              # %block.Cidr_Prelude.Bool.True.4173.i.i
	movq	$7, (%rdi)
	jmp	.LBB7_525
.LBB7_472:                              # %block.exit.4117.i.i
	cmpq	$2, %rdx
	jle	.LBB7_473
# %bb.493:                              # %block.exit.4117.i.i
	cmpq	$4, %rdx
	jg	.LBB7_498
# %bb.494:                              # %block.exit.4117.i.i
	cmpq	$3, %rdx
	jne	.LBB7_495
# %bb.517:                              # %block.CGrString.4147.i.i
	movq	$3, (%rdi)
	movq	%rcx, 8(%rdi)
	jmp	.LBB7_525
.LBB7_509:                              # %block.exit.4117.i.i
	cmpq	$12, %rdx
	jg	.LBB7_513
# %bb.510:                              # %block.exit.4117.i.i
	cmpq	$11, %rdx
	jne	.LBB7_511
# %bb.521:                              # %"block.Cidr_{U_Main.{main_9}_1}.4199.i.i"
	movq	$11, (%rdi)
	movq	%rax, 8(%rdi)
	jmp	.LBB7_525
.LBB7_473:                              # %block.exit.4117.i.i
	testq	%rdx, %rdx
	je	.LBB7_524
# %bb.474:                              # %block.exit.4117.i.i
	cmpq	$1, %rdx
	jne	.LBB7_475
# %bb.516:                              # %block.CGrFloat.4135.i.i
	movq	$1, (%rdi)
	movss	%xmm0, 8(%rdi)
	jmp	.LBB7_525
.LBB7_506:                              # %block.exit.4117.i.i
	cmpq	$9, %rdx
	jne	.LBB7_507
# %bb.520:                              # %block.Cidr_Prelude.List.Nil.4185.i.i
	movq	$9, (%rdi)
	jmp	.LBB7_525
.LBB7_498:                              # %block.exit.4117.i.i
	cmpq	$5, %rdx
	jne	.LBB7_499
# %bb.518:                              # %"block.Cidr_Data.Vect.::.4161.i.i"
	movq	$5, (%rdi)
	jmp	.LBB7_497
.LBB7_513:                              # %block.exit.4117.i.i
	cmpq	$13, %rdx
	jne	.LBB7_514
# %bb.522:                              # %"block.Cidr_{U_Main.{printFmt_15}_1}.4213.i.i"
	movq	$13, (%rdi)
	jmp	.LBB7_497
.LBB7_485:                              # %block.CErased.4021.i.i
	movq	$0, (%rsi)
	jmp	.LBB7_471
.LBB7_453:                              # %block.exit.4007.i.i
	cmpq	$2, %rdx
	jne	.LBB7_523
# %bb.454:                              # %block.CGrInt.4031.i.i
	movq	$2, (%rsi)
	movq	%rbx, 8(%rsi)
	jmp	.LBB7_471
.LBB7_469:                              # %block.exit.4007.i.i
	cmpq	$10, %rdx
	jne	.LBB7_523
# %bb.470:                              # %"block.Cidr_{U_Main.{adder_0}_1}.4079.i.i"
	movq	$10, (%rsi)
	movq	%rax, 8(%rsi)
	movq	%r8, 16(%rsi)
	movq	%rdi, 24(%rsi)
	jmp	.LBB7_471
.LBB7_461:                              # %block.exit.4007.i.i
	cmpq	$6, %rdx
	jne	.LBB7_523
# %bb.462:                              # %block.Cidr_Prelude.Bool.False.4059.i.i
	movq	$6, (%rsi)
	jmp	.LBB7_471
.LBB7_482:                              # %block.exit.4007.i.i
	cmpq	$14, %rdx
	jne	.LBB7_523
# %bb.483:                              # %"block.Cidr_{U_Prelude.Show.{Data.Vect.@Prelude.Show.Show$Vect len elem:!show:0_lam_28}_1}.4111.i.i"
	movq	$14, (%rsi)
	movq	%rax, 8(%rsi)
	jmp	.LBB7_471
.LBB7_504:                              # %block.exit.4117.i.i
	cmpq	$8, %rdx
	jne	.LBB7_523
# %bb.505:                              # %"block.Cidr_Prelude.List.::.4177.i.i"
	movq	$8, (%rdi)
	jmp	.LBB7_497
.LBB7_495:                              # %block.exit.4117.i.i
	cmpq	$4, %rdx
	jne	.LBB7_523
# %bb.496:                              # %block.Cidr_Builtins.MkPair.4153.i.i
	movq	$4, (%rdi)
	jmp	.LBB7_497
.LBB7_511:                              # %block.exit.4117.i.i
	cmpq	$12, %rdx
	jne	.LBB7_523
# %bb.512:                              # %"block.Cidr_{U_Main.{printFmt_14}_1}.4205.i.i"
	movq	$12, (%rdi)
.LBB7_497:                              # %"idr_{runMain_0}.exit"
	movq	%rax, 8(%rdi)
	movq	%r8, 16(%rdi)
.LBB7_525:                              # %"idr_{runMain_0}.exit"
	movl	$16, %ebx
	movl	$16, %esi
	lock		xaddq	%rsi, _heap_ptr_(%rip)
	movq	$3, (%rsi)
	movq	$str.4, 8(%rsi)
	callq	.Lidris_str_concat
	lock		xaddq	%rbx, _heap_ptr_(%rip)
	movq	%rax, (%rbx)
	movq	%rdx, 8(%rbx)
	movq	%rdx, %rdi
	callq	_prim_string_print
	movl	$8, %eax
	movl	$8, %ecx
	lock		xaddq	%rcx, _heap_ptr_(%rip)
	movq	$15, (%rcx)
	lock		xaddq	%rax, _heap_ptr_(%rip)
	movq	$34, (%rax)
	addq	$600, %rsp              # imm = 0x258
	.cfi_def_cfa_offset 40
	popq	%rbx
	.cfi_def_cfa_offset 32
	popq	%r12
	.cfi_def_cfa_offset 24
	popq	%r14
	.cfi_def_cfa_offset 16
	popq	%r15
	.cfi_def_cfa_offset 8
	retq
.LBB7_524:                              # %block.CErased.4131.i.i
	.cfi_def_cfa_offset 640
	movq	$0, (%rdi)
	jmp	.LBB7_525
.LBB7_475:                              # %block.exit.4117.i.i
	cmpq	$2, %rdx
	jne	.LBB7_523
# %bb.476:                              # %block.CGrInt.4141.i.i
	movq	$2, (%rdi)
	movq	%rbx, 8(%rdi)
	jmp	.LBB7_525
.LBB7_507:                              # %block.exit.4117.i.i
	cmpq	$10, %rdx
	jne	.LBB7_523
# %bb.508:                              # %"block.Cidr_{U_Main.{adder_0}_1}.4189.i.i"
	movq	$10, (%rdi)
	movq	%rax, 8(%rdi)
	movq	%r8, 16(%rdi)
	movq	%rsi, 24(%rdi)
	jmp	.LBB7_525
.LBB7_499:                              # %block.exit.4117.i.i
	cmpq	$6, %rdx
	jne	.LBB7_523
# %bb.500:                              # %block.Cidr_Prelude.Bool.False.4169.i.i
	movq	$6, (%rdi)
	jmp	.LBB7_525
.LBB7_514:                              # %block.exit.4117.i.i
	cmpq	$14, %rdx
	jne	.LBB7_523
# %bb.515:                              # %"block.Cidr_{U_Prelude.Show.{Data.Vect.@Prelude.Show.Show$Vect len elem:!show:0_lam_28}_1}.4221.i.i"
	movq	$14, (%rdi)
	movq	%rax, 8(%rdi)
	jmp	.LBB7_525
.LBB7_523:                              # %error_block.i.i.i
	movl	$666, %edi              # imm = 0x29A
	callq	_prim_int_print
.Lfunc_end7:
	.size	grinMain, .Lfunc_end7-grinMain
	.cfi_endproc
                                        # -- End function
	.p2align	4, 0x90         # -- Begin function idr_Main.adder
	.type	.Lidr_Main.adder,@function
.Lidr_Main.adder:                       # @idr_Main.adder
	.cfi_startproc
# %bb.0:                                # %idr_Main.adder.entry
	pushq	%rax
	.cfi_def_cfa_offset 16
	cmpq	$2, (%rdx)
	jne	.LBB8_48
# %bb.1:                                # %block.CGrInt.1440
	cmpq	$0, 8(%rdx)
	je	.LBB8_5
# %bb.2:                                # %block.default.1441
	movl	$16, %r10d
	movl	$16, %eax
	lock		xaddq	%rax, _heap_ptr_(%rip)
	movq	$2, (%rax)
	movq	$1, 8(%rax)
	movq	8(%rdx), %rax
	decq	%rax
	lock		xaddq	%r10, _heap_ptr_(%rip)
	movq	$2, (%r10)
	movq	%rax, 8(%r10)
.LBB8_3:                                # %block.exit.1584
	movl	$10, %edx
                                        # implicit-def: $xmm0
                                        # implicit-def: $r8
                                        # implicit-def: $r9
	jmp	.LBB8_4
.LBB8_5:                                # %block.int_0.1459
	movq	(%rcx), %rax
	cmpq	$6, %rax
	jle	.LBB8_10
# %bb.6:                                # %block.int_0.1459
	cmpq	$10, %rax
	jg	.LBB8_14
# %bb.7:                                # %block.int_0.1459
	cmpq	$8, %rax
	jg	.LBB8_20
# %bb.8:                                # %block.int_0.1459
	cmpq	$7, %rax
	jne	.LBB8_26
# %bb.9:                                # %block.Cidr_Prelude.Bool.True.1510
	movl	$7, %edx
	jmp	.LBB8_34
.LBB8_10:                               # %block.int_0.1459
	cmpq	$2, %rax
	jle	.LBB8_17
# %bb.11:                               # %block.int_0.1459
	cmpq	$4, %rax
	jg	.LBB8_22
# %bb.12:                               # %block.int_0.1459
	cmpq	$3, %rax
	jne	.LBB8_28
# %bb.13:                               # %block.CGrString.1480
	movq	8(%rcx), %r9
	movl	$3, %edx
                                        # implicit-def: $xmm0
                                        # implicit-def: $r8
	jmp	.LBB8_37
.LBB8_14:                               # %block.int_0.1459
	cmpq	$12, %rax
	jg	.LBB8_24
# %bb.15:                               # %block.int_0.1459
	cmpq	$11, %rax
	jne	.LBB8_31
# %bb.16:                               # %"block.Cidr_{U_Main.{main_9}_1}.1540"
	movq	8(%rcx), %rsi
	movl	$11, %edx
	jmp	.LBB8_47
.LBB8_17:                               # %block.int_0.1459
	testq	%rax, %rax
	je	.LBB8_33
# %bb.18:                               # %block.int_0.1459
	cmpq	$1, %rax
	jne	.LBB8_39
# %bb.19:                               # %block.CGrFloat.1466
	movss	8(%rcx), %xmm0          # xmm0 = mem[0],zero,zero,zero
	movl	$1, %edx
	jmp	.LBB8_35
.LBB8_20:                               # %block.int_0.1459
	cmpq	$9, %rax
	jne	.LBB8_41
# %bb.21:                               # %block.Cidr_Prelude.List.Nil.1524
	movl	$9, %edx
	jmp	.LBB8_34
.LBB8_22:                               # %block.int_0.1459
	cmpq	$5, %rax
	jne	.LBB8_43
# %bb.23:                               # %"block.Cidr_Data.Vect.::.1496"
	movq	8(%rcx), %rsi
	movq	16(%rcx), %r10
	movl	$5, %edx
	jmp	.LBB8_30
.LBB8_24:                               # %block.int_0.1459
	cmpq	$13, %rax
	jne	.LBB8_45
# %bb.25:                               # %"block.Cidr_{U_Main.{printFmt_15}_1}.1556"
	movq	8(%rcx), %rsi
	movq	16(%rcx), %r10
	movl	$13, %edx
	jmp	.LBB8_30
.LBB8_26:                               # %block.int_0.1459
	cmpq	$8, %rax
	jne	.LBB8_48
# %bb.27:                               # %"block.Cidr_Prelude.List.::.1515"
	movq	8(%rcx), %rsi
	movq	16(%rcx), %r10
	movl	$8, %edx
	jmp	.LBB8_30
.LBB8_28:                               # %block.int_0.1459
	cmpq	$4, %rax
	jne	.LBB8_48
# %bb.29:                               # %block.Cidr_Builtins.MkPair.1487
	movq	8(%rcx), %rsi
	movq	16(%rcx), %r10
	movl	$4, %edx
	jmp	.LBB8_30
.LBB8_31:                               # %block.int_0.1459
	cmpq	$12, %rax
	jne	.LBB8_48
# %bb.32:                               # %"block.Cidr_{U_Main.{printFmt_14}_1}.1547"
	movq	8(%rcx), %rsi
	movq	16(%rcx), %r10
	movl	$12, %edx
.LBB8_30:                               # %block.exit.1584
                                        # implicit-def: $xmm0
                                        # implicit-def: $r8
                                        # implicit-def: $r9
                                        # implicit-def: $rcx
	jmp	.LBB8_4
.LBB8_33:
	xorl	%edx, %edx
	jmp	.LBB8_34
.LBB8_39:                               # %block.int_0.1459
	cmpq	$2, %rax
	jne	.LBB8_48
# %bb.40:                               # %block.CGrInt.1473
	movq	8(%rcx), %r8
	movl	$2, %edx
                                        # implicit-def: $xmm0
	jmp	.LBB8_36
.LBB8_41:                               # %block.int_0.1459
	cmpq	$10, %rax
	jne	.LBB8_48
# %bb.42:                               # %"block.Cidr_{U_Main.{adder_0}_1}.1529"
	movq	8(%rcx), %rsi
	movq	16(%rcx), %r10
	movq	24(%rcx), %rcx
	jmp	.LBB8_3
.LBB8_43:                               # %block.int_0.1459
	cmpq	$6, %rax
	jne	.LBB8_48
# %bb.44:                               # %block.Cidr_Prelude.Bool.False.1505
	movl	$6, %edx
.LBB8_34:                               # %block.exit.1584
                                        # implicit-def: $xmm0
.LBB8_35:                               # %block.exit.1584
                                        # implicit-def: $r8
.LBB8_36:                               # %block.exit.1584
                                        # implicit-def: $r9
.LBB8_37:                               # %block.exit.1584
                                        # implicit-def: $rsi
	jmp	.LBB8_38
.LBB8_45:                               # %block.int_0.1459
	cmpq	$14, %rax
	jne	.LBB8_48
# %bb.46:                               # %"block.Cidr_{U_Prelude.Show.{Data.Vect.@Prelude.Show.Show$Vect len elem:!show:0_lam_28}_1}.1565"
	movq	8(%rcx), %rsi
	movl	$14, %edx
.LBB8_47:                               # %block.exit.1584
                                        # implicit-def: $xmm0
                                        # implicit-def: $r8
                                        # implicit-def: $r9
.LBB8_38:                               # %block.exit.1584
                                        # implicit-def: $r10
                                        # implicit-def: $rcx
.LBB8_4:                                # %block.exit.1584
	movq	%rdx, (%rdi)
	movss	%xmm0, 8(%rdi)
	movq	%r8, 12(%rdi)
	movq	%r9, 20(%rdi)
	movq	%rsi, 28(%rdi)
	movq	%r10, 36(%rdi)
	movq	%rcx, 44(%rdi)
	movq	%rdi, %rax
	popq	%rcx
	.cfi_def_cfa_offset 8
	retq
.LBB8_48:                               # %error_block
	.cfi_def_cfa_offset 16
	movl	$666, %edi              # imm = 0x29A
	callq	_prim_int_print
.Lfunc_end8:
	.size	.Lidr_Main.adder, .Lfunc_end8-.Lidr_Main.adder
	.cfi_endproc
                                        # -- End function
	.p2align	4, 0x90         # -- Begin function idr_Data.Vect.foldrImpl
	.type	.Lidr_Data.Vect.foldrImpl,@function
.Lidr_Data.Vect.foldrImpl:              # @idr_Data.Vect.foldrImpl
	.cfi_startproc
# %bb.0:                                # %idr_Data.Vect.foldrImpl.entry
	pushq	%r14
	.cfi_def_cfa_offset 16
	pushq	%rbx
	.cfi_def_cfa_offset 24
	subq	$56, %rsp
	.cfi_def_cfa_offset 80
	.cfi_offset %rbx, -24
	.cfi_offset %r14, -16
	movq	%rdi, %r14
	jmp	.LBB9_2
	.p2align	4, 0x90
.LBB9_1:                                # %"block.Cidr_Data.Vect.::.1706"
                                        #   in Loop: Header=BB9_2 Depth=1
	movl	$8, %edi
	lock		xaddq	%rdi, _heap_ptr_(%rip)
	movq	$0, (%rdi)
	movl	$8, %edi
	lock		xaddq	%rdi, _heap_ptr_(%rip)
	movq	$0, (%rdi)
	movl	$8, %edi
	lock		xaddq	%rdi, _heap_ptr_(%rip)
	movq	$0, (%rdi)
	movl	$32, %edi
	lock		xaddq	%rdi, _heap_ptr_(%rip)
	movq	$17, (%rdi)
	movq	%rcx, 8(%rdi)
	movq	%rsi, 16(%rdi)
	movq	%rax, 24(%rdi)
	movq	%rdi, %rcx
.LBB9_2:                                # %tailrecurse
                                        # =>This Inner Loop Header: Depth=1
	movq	(%r8), %rax
	cmpq	$7, %rax
	jg	.LBB9_7
# %bb.3:                                # %tailrecurse
                                        #   in Loop: Header=BB9_2 Depth=1
	cmpq	$3, %rax
	jg	.LBB9_11
# %bb.4:                                # %tailrecurse
                                        #   in Loop: Header=BB9_2 Depth=1
	cmpq	$1, %rax
	jg	.LBB9_17
# %bb.5:                                # %tailrecurse
                                        #   in Loop: Header=BB9_2 Depth=1
	testq	%rax, %rax
	jne	.LBB9_25
# %bb.6:                                #   in Loop: Header=BB9_2 Depth=1
	xorl	%edi, %edi
                                        # implicit-def: $rax
                                        # implicit-def: $r8
	cmpq	$16, %rdi
	je	.LBB9_45
	jmp	.LBB9_43
	.p2align	4, 0x90
.LBB9_7:                                # %tailrecurse
                                        #   in Loop: Header=BB9_2 Depth=1
	cmpq	$11, %rax
	jg	.LBB9_14
# %bb.8:                                # %tailrecurse
                                        #   in Loop: Header=BB9_2 Depth=1
	cmpq	$9, %rax
	jg	.LBB9_19
# %bb.9:                                # %tailrecurse
                                        #   in Loop: Header=BB9_2 Depth=1
	cmpq	$8, %rax
	jne	.LBB9_27
# %bb.10:                               # %"block.Cidr_Prelude.List.::.1646"
                                        #   in Loop: Header=BB9_2 Depth=1
	movq	8(%r8), %rax
	movq	16(%r8), %r8
	movl	$8, %edi
	cmpq	$16, %rdi
	je	.LBB9_45
	.p2align	4, 0x90
.LBB9_43:                               # %block.exit.1703
                                        #   in Loop: Header=BB9_2 Depth=1
	cmpq	$5, %rdi
	je	.LBB9_1
	jmp	.LBB9_44
	.p2align	4, 0x90
.LBB9_11:                               # %tailrecurse
                                        #   in Loop: Header=BB9_2 Depth=1
	cmpq	$5, %rax
	jg	.LBB9_21
# %bb.12:                               # %tailrecurse
                                        #   in Loop: Header=BB9_2 Depth=1
	cmpq	$4, %rax
	jne	.LBB9_29
# %bb.13:                               # %block.Cidr_Builtins.MkPair.1613
                                        #   in Loop: Header=BB9_2 Depth=1
	movq	8(%r8), %rax
	movq	16(%r8), %r8
	movl	$4, %edi
	cmpq	$16, %rdi
	jne	.LBB9_43
	jmp	.LBB9_45
	.p2align	4, 0x90
.LBB9_14:                               # %tailrecurse
                                        #   in Loop: Header=BB9_2 Depth=1
	cmpq	$13, %rax
	jg	.LBB9_23
# %bb.15:                               # %tailrecurse
                                        #   in Loop: Header=BB9_2 Depth=1
	cmpq	$12, %rax
	jne	.LBB9_31
# %bb.16:                               # %"block.Cidr_{U_Main.{printFmt_14}_1}.1678"
                                        #   in Loop: Header=BB9_2 Depth=1
	movq	8(%r8), %rax
	movq	16(%r8), %r8
	movl	$12, %edi
	cmpq	$16, %rdi
	jne	.LBB9_43
	jmp	.LBB9_45
.LBB9_17:                               # %tailrecurse
                                        #   in Loop: Header=BB9_2 Depth=1
	cmpq	$2, %rax
	jne	.LBB9_33
# %bb.18:                               # %block.CGrInt.1599
                                        #   in Loop: Header=BB9_2 Depth=1
	movl	$2, %edi
                                        # implicit-def: $rax
                                        # implicit-def: $r8
	cmpq	$16, %rdi
	je	.LBB9_45
	jmp	.LBB9_43
.LBB9_19:                               # %tailrecurse
                                        #   in Loop: Header=BB9_2 Depth=1
	cmpq	$10, %rax
	jne	.LBB9_35
# %bb.20:                               # %"block.Cidr_{U_Main.{adder_0}_1}.1660"
                                        #   in Loop: Header=BB9_2 Depth=1
	movq	8(%r8), %rax
	movq	16(%r8), %r8
	movl	$10, %edi
	cmpq	$16, %rdi
	jne	.LBB9_43
	jmp	.LBB9_45
.LBB9_21:                               # %tailrecurse
                                        #   in Loop: Header=BB9_2 Depth=1
	cmpq	$6, %rax
	jne	.LBB9_37
# %bb.22:                               # %block.Cidr_Prelude.Bool.False.1636
                                        #   in Loop: Header=BB9_2 Depth=1
	movl	$6, %edi
                                        # implicit-def: $rax
                                        # implicit-def: $r8
	cmpq	$16, %rdi
	je	.LBB9_45
	jmp	.LBB9_43
.LBB9_23:                               # %tailrecurse
                                        #   in Loop: Header=BB9_2 Depth=1
	cmpq	$14, %rax
	jne	.LBB9_39
# %bb.24:                               # %"block.Cidr_{U_Prelude.Show.{Data.Vect.@Prelude.Show.Show$Vect len elem:!show:0_lam_28}_1}.1696"
                                        #   in Loop: Header=BB9_2 Depth=1
	movq	8(%r8), %rax
	movl	$14, %edi
                                        # implicit-def: $r8
	cmpq	$16, %rdi
	je	.LBB9_45
	jmp	.LBB9_43
.LBB9_25:                               # %tailrecurse
                                        #   in Loop: Header=BB9_2 Depth=1
	cmpq	$1, %rax
	jne	.LBB9_44
# %bb.26:                               # %block.CGrFloat.1592
                                        #   in Loop: Header=BB9_2 Depth=1
	movl	$1, %edi
                                        # implicit-def: $rax
                                        # implicit-def: $r8
	cmpq	$16, %rdi
	je	.LBB9_45
	jmp	.LBB9_43
.LBB9_27:                               # %tailrecurse
                                        #   in Loop: Header=BB9_2 Depth=1
	cmpq	$9, %rax
	jne	.LBB9_44
# %bb.28:                               # %block.Cidr_Prelude.List.Nil.1655
                                        #   in Loop: Header=BB9_2 Depth=1
	movl	$9, %edi
                                        # implicit-def: $rax
                                        # implicit-def: $r8
	cmpq	$16, %rdi
	je	.LBB9_45
	jmp	.LBB9_43
.LBB9_29:                               # %tailrecurse
                                        #   in Loop: Header=BB9_2 Depth=1
	cmpq	$5, %rax
	jne	.LBB9_44
# %bb.30:                               # %"block.Cidr_Data.Vect.::.1622"
                                        #   in Loop: Header=BB9_2 Depth=1
	movq	8(%r8), %rax
	movq	16(%r8), %r8
	movl	$5, %edi
	cmpq	$16, %rdi
	jne	.LBB9_43
	jmp	.LBB9_45
.LBB9_31:                               # %tailrecurse
                                        #   in Loop: Header=BB9_2 Depth=1
	cmpq	$13, %rax
	jne	.LBB9_44
# %bb.32:                               # %"block.Cidr_{U_Main.{printFmt_15}_1}.1687"
                                        #   in Loop: Header=BB9_2 Depth=1
	movq	8(%r8), %rax
	movq	16(%r8), %r8
	movl	$13, %edi
	cmpq	$16, %rdi
	jne	.LBB9_43
	jmp	.LBB9_45
.LBB9_33:                               # %tailrecurse
                                        #   in Loop: Header=BB9_2 Depth=1
	cmpq	$3, %rax
	jne	.LBB9_44
# %bb.34:                               # %block.CGrString.1606
                                        #   in Loop: Header=BB9_2 Depth=1
	movl	$3, %edi
                                        # implicit-def: $rax
                                        # implicit-def: $r8
	cmpq	$16, %rdi
	je	.LBB9_45
	jmp	.LBB9_43
.LBB9_35:                               # %tailrecurse
                                        #   in Loop: Header=BB9_2 Depth=1
	cmpq	$11, %rax
	jne	.LBB9_44
# %bb.36:                               # %"block.Cidr_{U_Main.{main_9}_1}.1671"
                                        #   in Loop: Header=BB9_2 Depth=1
	movq	8(%r8), %rax
	movl	$11, %edi
                                        # implicit-def: $r8
	cmpq	$16, %rdi
	je	.LBB9_45
	jmp	.LBB9_43
.LBB9_37:                               # %tailrecurse
                                        #   in Loop: Header=BB9_2 Depth=1
	cmpq	$7, %rax
	jne	.LBB9_44
# %bb.38:                               # %block.Cidr_Prelude.Bool.True.1641
                                        #   in Loop: Header=BB9_2 Depth=1
	movl	$7, %edi
                                        # implicit-def: $rax
                                        # implicit-def: $r8
	cmpq	$16, %rdi
	je	.LBB9_45
	jmp	.LBB9_43
.LBB9_39:                               # %tailrecurse
                                        #   in Loop: Header=BB9_2 Depth=1
	cmpq	$16, %rax
	jne	.LBB9_44
# %bb.40:                               # %block.Cidr_Data.Vect.Nil.1631
                                        #   in Loop: Header=BB9_2 Depth=1
	movl	$16, %edi
                                        # implicit-def: $rax
                                        # implicit-def: $r8
	cmpq	$16, %rdi
	jne	.LBB9_43
.LBB9_45:                               # %block.Cidr_Data.Vect.Nil.1735
	movq	%rsp, %rdi
	movq	%rcx, %rsi
	callq	".Lidr_{APPLY_0}"
	movq	(%rsp), %rax
	movss	8(%rsp), %xmm0          # xmm0 = mem[0],zero,zero,zero
	movq	12(%rsp), %rcx
	movq	20(%rsp), %rdx
	movq	28(%rsp), %rsi
	movq	36(%rsp), %rdi
	movq	44(%rsp), %rbx
	movq	%rbx, 44(%r14)
	movq	%rdi, 36(%r14)
	movq	%rsi, 28(%r14)
	movq	%rdx, 20(%r14)
	movq	%rcx, 12(%r14)
	movss	%xmm0, 8(%r14)
	movq	%rax, (%r14)
	movq	%r14, %rax
	addq	$56, %rsp
	.cfi_def_cfa_offset 24
	popq	%rbx
	.cfi_def_cfa_offset 16
	popq	%r14
	.cfi_def_cfa_offset 8
	retq
.LBB9_44:                               # %error_block
	.cfi_def_cfa_offset 80
	movl	$666, %edi              # imm = 0x29A
	callq	_prim_int_print
.Lfunc_end9:
	.size	.Lidr_Data.Vect.foldrImpl, .Lfunc_end9-.Lidr_Data.Vect.foldrImpl
	.cfi_endproc
                                        # -- End function
	.p2align	4, 0x90         # -- Begin function idr_Prelude.Chars.isSpace
	.type	.Lidr_Prelude.Chars.isSpace,@function
.Lidr_Prelude.Chars.isSpace:            # @idr_Prelude.Chars.isSpace
	.cfi_startproc
# %bb.0:                                # %idr_Prelude.Chars.isSpace.entry
	pushq	%r14
	.cfi_def_cfa_offset 16
	pushq	%rbx
	.cfi_def_cfa_offset 24
	pushq	%rax
	.cfi_def_cfa_offset 32
	.cfi_offset %rbx, -24
	.cfi_offset %r14, -16
	movq	%rdi, %r14
	movl	$16, %ebx
	movl	$16, %esi
	lock		xaddq	%rsi, _heap_ptr_(%rip)
	movq	$2, (%rsi)
	movq	$32, 8(%rsi)
	callq	.Lidris_int_eq
	lock		xaddq	%rbx, _heap_ptr_(%rip)
	movq	%rax, (%rbx)
	movq	%rdx, 8(%rbx)
	cmpq	$2, %rax
	jne	.LBB10_21
# %bb.1:                                # %block.CGrInt.1905
	testq	%rdx, %rdx
	jne	.LBB10_2
# %bb.3:                                # %block.int_0.1907
	movl	$16, %ebx
	movl	$16, %esi
	lock		xaddq	%rsi, _heap_ptr_(%rip)
	movq	$2, (%rsi)
	movq	$9, 8(%rsi)
	movq	%r14, %rdi
	callq	.Lidris_int_eq
	lock		xaddq	%rbx, _heap_ptr_(%rip)
	movq	%rax, (%rbx)
	movq	%rdx, 8(%rbx)
	cmpq	$2, %rax
	jne	.LBB10_21
# %bb.4:                                # %block.CGrInt.1926
	testq	%rdx, %rdx
	jne	.LBB10_2
# %bb.6:                                # %block.int_0.1928
	movl	$16, %ebx
	movl	$16, %esi
	lock		xaddq	%rsi, _heap_ptr_(%rip)
	movq	$2, (%rsi)
	movq	$13, 8(%rsi)
	movq	%r14, %rdi
	callq	.Lidris_int_eq
	lock		xaddq	%rbx, _heap_ptr_(%rip)
	movq	%rax, (%rbx)
	movq	%rdx, 8(%rbx)
	cmpq	$2, %rax
	jne	.LBB10_21
# %bb.7:                                # %block.CGrInt.1947
	testq	%rdx, %rdx
	jne	.LBB10_2
# %bb.9:                                # %block.int_0.1949
	movl	$16, %ebx
	movl	$16, %esi
	lock		xaddq	%rsi, _heap_ptr_(%rip)
	movq	$2, (%rsi)
	movq	$10, 8(%rsi)
	movq	%r14, %rdi
	callq	.Lidris_int_eq
	lock		xaddq	%rbx, _heap_ptr_(%rip)
	movq	%rax, (%rbx)
	movq	%rdx, 8(%rbx)
	cmpq	$2, %rax
	jne	.LBB10_21
# %bb.10:                               # %block.CGrInt.1968
	testq	%rdx, %rdx
	jne	.LBB10_2
# %bb.12:                               # %block.int_0.1970
	movl	$16, %ebx
	movl	$16, %esi
	lock		xaddq	%rsi, _heap_ptr_(%rip)
	movq	$2, (%rsi)
	movq	$12, 8(%rsi)
	movq	%r14, %rdi
	callq	.Lidris_int_eq
	lock		xaddq	%rbx, _heap_ptr_(%rip)
	movq	%rax, (%rbx)
	movq	%rdx, 8(%rbx)
	cmpq	$2, %rax
	jne	.LBB10_21
# %bb.13:                               # %block.CGrInt.1989
	testq	%rdx, %rdx
	jne	.LBB10_2
# %bb.15:                               # %block.int_0.1991
	movl	$16, %ebx
	movl	$16, %esi
	lock		xaddq	%rsi, _heap_ptr_(%rip)
	movq	$2, (%rsi)
	movq	$11, 8(%rsi)
	movq	%r14, %rdi
	callq	.Lidris_int_eq
	lock		xaddq	%rbx, _heap_ptr_(%rip)
	movq	%rax, (%rbx)
	movq	%rdx, 8(%rbx)
	cmpq	$2, %rax
	jne	.LBB10_21
# %bb.16:                               # %block.CGrInt.2010
	testq	%rdx, %rdx
	je	.LBB10_18
.LBB10_2:
	movl	$7, %eax
.LBB10_20:                              # %block.exit.2060
	addq	$8, %rsp
	.cfi_def_cfa_offset 24
	popq	%rbx
	.cfi_def_cfa_offset 16
	popq	%r14
	.cfi_def_cfa_offset 8
	retq
.LBB10_18:                              # %block.int_0.2012
	.cfi_def_cfa_offset 32
	movl	$16, %ebx
	movl	$16, %esi
	lock		xaddq	%rsi, _heap_ptr_(%rip)
	movq	$2, (%rsi)
	movq	$160, 8(%rsi)
	movq	%r14, %rdi
	callq	.Lidris_int_eq
	lock		xaddq	%rbx, _heap_ptr_(%rip)
	movq	%rax, (%rbx)
	movq	%rdx, 8(%rbx)
	cmpq	$2, %rax
	jne	.LBB10_21
# %bb.19:                               # %block.CGrInt.2031
	cmpq	$1, %rdx
	movl	$7, %eax
	sbbq	$0, %rax
	jmp	.LBB10_20
.LBB10_21:                              # %error_block
	movl	$666, %edi              # imm = 0x29A
	callq	_prim_int_print
.Lfunc_end10:
	.size	.Lidr_Prelude.Chars.isSpace, .Lfunc_end10-.Lidr_Prelude.Chars.isSpace
	.cfi_endproc
                                        # -- End function
	.p2align	4, 0x90         # -- Begin function idr_Prelude.Show.primNumShow
	.type	.Lidr_Prelude.Show.primNumShow,@function
.Lidr_Prelude.Show.primNumShow:         # @idr_Prelude.Show.primNumShow
	.cfi_startproc
# %bb.0:                                # %idr_Prelude.Show.primNumShow.entry
	pushq	%rbp
	.cfi_def_cfa_offset 16
	pushq	%r15
	.cfi_def_cfa_offset 24
	pushq	%r14
	.cfi_def_cfa_offset 32
	pushq	%r13
	.cfi_def_cfa_offset 40
	pushq	%r12
	.cfi_def_cfa_offset 48
	pushq	%rbx
	.cfi_def_cfa_offset 56
	subq	$56, %rsp
	.cfi_def_cfa_offset 112
	.cfi_offset %rbx, -56
	.cfi_offset %r12, -48
	.cfi_offset %r13, -40
	.cfi_offset %r14, -32
	.cfi_offset %r15, -24
	.cfi_offset %rbp, -16
	movq	%rdx, %r15
	movq	%rdi, %r14
	movq	%rsp, %rdi
	movq	%rcx, %rdx
	callq	".Lidr_{APPLY_0}"
	movq	44(%rsp), %rsi
	movq	36(%rsp), %rcx
	movq	28(%rsp), %rax
	movq	20(%rsp), %rbx
	movq	12(%rsp), %rdi
	movss	8(%rsp), %xmm0          # xmm0 = mem[0],zero,zero,zero
	movq	(%rsp), %rdx
	movl	$52, %r12d
	lock		xaddq	%r12, _heap_ptr_(%rip)
	cmpq	$6, %rdx
	jle	.LBB11_5
# %bb.1:                                # %idr_Prelude.Show.primNumShow.entry
	cmpq	$10, %rdx
	jg	.LBB11_9
# %bb.2:                                # %idr_Prelude.Show.primNumShow.entry
	cmpq	$8, %rdx
	jg	.LBB11_15
# %bb.3:                                # %idr_Prelude.Show.primNumShow.entry
	cmpq	$7, %rdx
	jne	.LBB11_21
# %bb.4:                                # %block.Cidr_Prelude.Bool.True.4297
	movq	$7, (%r12)
	cmpq	$35, (%r15)
	je	.LBB11_28
	jmp	.LBB11_112
.LBB11_5:                               # %idr_Prelude.Show.primNumShow.entry
	cmpq	$2, %rdx
	jle	.LBB11_12
# %bb.6:                                # %idr_Prelude.Show.primNumShow.entry
	cmpq	$4, %rdx
	jg	.LBB11_17
# %bb.7:                                # %idr_Prelude.Show.primNumShow.entry
	cmpq	$3, %rdx
	jne	.LBB11_23
# %bb.8:                                # %block.CGrString.4271
	movq	$3, (%r12)
	movq	%rbx, 8(%r12)
	cmpq	$35, (%r15)
	je	.LBB11_28
	jmp	.LBB11_112
.LBB11_9:                               # %idr_Prelude.Show.primNumShow.entry
	cmpq	$12, %rdx
	jg	.LBB11_19
# %bb.10:                               # %idr_Prelude.Show.primNumShow.entry
	cmpq	$11, %rdx
	jne	.LBB11_25
# %bb.11:                               # %"block.Cidr_{U_Main.{main_9}_1}.4323"
	movq	$11, (%r12)
	jmp	.LBB11_92
.LBB11_12:                              # %idr_Prelude.Show.primNumShow.entry
	testq	%rdx, %rdx
	je	.LBB11_83
# %bb.13:                               # %idr_Prelude.Show.primNumShow.entry
	cmpq	$1, %rdx
	jne	.LBB11_84
# %bb.14:                               # %block.CGrFloat.4259
	movq	$1, (%r12)
	movss	%xmm0, 8(%r12)
	cmpq	$35, (%r15)
	je	.LBB11_28
	jmp	.LBB11_112
.LBB11_15:                              # %idr_Prelude.Show.primNumShow.entry
	cmpq	$9, %rdx
	jne	.LBB11_86
# %bb.16:                               # %block.Cidr_Prelude.List.Nil.4309
	movq	$9, (%r12)
	cmpq	$35, (%r15)
	je	.LBB11_28
	jmp	.LBB11_112
.LBB11_17:                              # %idr_Prelude.Show.primNumShow.entry
	cmpq	$5, %rdx
	jne	.LBB11_88
# %bb.18:                               # %"block.Cidr_Data.Vect.::.4285"
	movq	$5, (%r12)
	jmp	.LBB11_27
.LBB11_19:                              # %idr_Prelude.Show.primNumShow.entry
	cmpq	$13, %rdx
	jne	.LBB11_90
# %bb.20:                               # %"block.Cidr_{U_Main.{printFmt_15}_1}.4337"
	movq	$13, (%r12)
	jmp	.LBB11_27
.LBB11_21:                              # %idr_Prelude.Show.primNumShow.entry
	cmpq	$8, %rdx
	jne	.LBB11_112
# %bb.22:                               # %"block.Cidr_Prelude.List.::.4301"
	movq	$8, (%r12)
	jmp	.LBB11_27
.LBB11_23:                              # %idr_Prelude.Show.primNumShow.entry
	cmpq	$4, %rdx
	jne	.LBB11_112
# %bb.24:                               # %block.Cidr_Builtins.MkPair.4277
	movq	$4, (%r12)
	jmp	.LBB11_27
.LBB11_25:                              # %idr_Prelude.Show.primNumShow.entry
	cmpq	$12, %rdx
	jne	.LBB11_112
# %bb.26:                               # %"block.Cidr_{U_Main.{printFmt_14}_1}.4329"
	movq	$12, (%r12)
.LBB11_27:                              # %block.exit.4351
	movq	%rax, 8(%r12)
	movq	%rcx, 16(%r12)
	cmpq	$35, (%r15)
	je	.LBB11_28
	jmp	.LBB11_112
.LBB11_83:                              # %block.CErased.4255
	movq	$0, (%r12)
	cmpq	$35, (%r15)
	je	.LBB11_28
	jmp	.LBB11_112
.LBB11_84:                              # %idr_Prelude.Show.primNumShow.entry
	cmpq	$2, %rdx
	jne	.LBB11_112
# %bb.85:                               # %block.CGrInt.4265
	movq	$2, (%r12)
	movq	%rdi, 8(%r12)
	cmpq	$35, (%r15)
	je	.LBB11_28
	jmp	.LBB11_112
.LBB11_86:                              # %idr_Prelude.Show.primNumShow.entry
	cmpq	$10, %rdx
	jne	.LBB11_112
# %bb.87:                               # %"block.Cidr_{U_Main.{adder_0}_1}.4313"
	movq	$10, (%r12)
	movq	%rax, 8(%r12)
	movq	%rcx, 16(%r12)
	movq	%rsi, 24(%r12)
	cmpq	$35, (%r15)
	je	.LBB11_28
	jmp	.LBB11_112
.LBB11_88:                              # %idr_Prelude.Show.primNumShow.entry
	cmpq	$6, %rdx
	jne	.LBB11_112
# %bb.89:                               # %block.Cidr_Prelude.Bool.False.4293
	movq	$6, (%r12)
	cmpq	$35, (%r15)
	je	.LBB11_28
	jmp	.LBB11_112
.LBB11_90:                              # %idr_Prelude.Show.primNumShow.entry
	cmpq	$14, %rdx
	jne	.LBB11_112
# %bb.91:                               # %"block.Cidr_{U_Prelude.Show.{Data.Vect.@Prelude.Show.Show$Vect len elem:!show:0_lam_28}_1}.4345"
	movq	$14, (%r12)
.LBB11_92:                              # %"block.Cidr_{U_Prelude.Show.{Data.Vect.@Prelude.Show.Show$Vect len elem:!show:0_lam_28}_1}.4345"
	movq	%rax, 8(%r12)
	cmpq	$35, (%r15)
	jne	.LBB11_112
.LBB11_28:                              # %block.Cidr_Prelude.Show.Open.4356
	movl	$16, %ebp
	movl	$16, %r13d
	lock		xaddq	%r13, _heap_ptr_(%rip)
	movq	$2, (%r13)
	movq	$0, 8(%r13)
	movl	$16, %ebx
	lock		xaddq	%rbx, _heap_ptr_(%rip)
	movq	$2, (%rbx)
	movq	$5, 8(%rbx)
	movq	%r13, %rdi
	movq	%rbx, %rsi
	callq	.Lidris_int_eq
	lock		xaddq	%rbp, _heap_ptr_(%rip)
	movq	%rax, (%rbp)
	movq	%rdx, 8(%rbp)
	cmpq	$2, %rax
	jne	.LBB11_112
# %bb.29:                               # %block.CGrInt.13485.i
	testq	%rdx, %rdx
	je	.LBB11_31
# %bb.30:
	movl	$18, %eax
	jmp	.LBB11_33
.LBB11_31:                              # %block.int_0.13487.i
	movq	%r13, %rdi
	movq	%rbx, %rsi
	callq	.Lidris_int_lt
	movl	$16, %ecx
	lock		xaddq	%rcx, _heap_ptr_(%rip)
	movq	%rax, (%rcx)
	movq	%rdx, 8(%rcx)
	cmpq	$2, %rax
	jne	.LBB11_112
# %bb.32:                               # %block.CGrInt.13499.i
	cmpq	$1, %rdx
	movl	$20, %eax
	sbbq	$0, %rax
.LBB11_33:                              # %"idr_Prelude.Interfaces.Prelude.Interfaces.@Prelude.Interfaces.Ord$Integer:!compare:0.exit"
	movl	$8, %ecx
	lock		xaddq	%rcx, _heap_ptr_(%rip)
	leaq	-18(%rax), %rdx
	cmpq	$2, %rdx
	ja	.LBB11_112
# %bb.34:                               # %block.exit.4385
	movq	%rax, (%rcx)
	ja	.LBB11_112
# %bb.35:                               # %block.exit.4396
	cmpq	$19, (%rcx)
	jne	.LBB11_37
# %bb.36:
	movl	$7, %eax
	jmp	.LBB11_40
.LBB11_37:                              # %block.default.4399
	cmpq	$35, (%r15)
	jne	.LBB11_112
# %bb.38:                               # %block.Cidr_Prelude.Show.Open.4404
	movl	$16, %ebx
	movl	$16, %edi
	lock		xaddq	%rdi, _heap_ptr_(%rip)
	movq	$2, (%rdi)
	movq	$0, 8(%rdi)
	movl	$16, %esi
	lock		xaddq	%rsi, _heap_ptr_(%rip)
	movq	$2, (%rsi)
	movq	$5, 8(%rsi)
	callq	.Lidris_int_eq
	lock		xaddq	%rbx, _heap_ptr_(%rip)
	movq	%rax, (%rbx)
	movq	%rdx, 8(%rbx)
	cmpq	$2, %rax
	jne	.LBB11_112
# %bb.39:                               # %block.CGrInt.4432
	cmpq	$1, %rdx
	movl	$7, %eax
	sbbq	$0, %rax
.LBB11_40:                              # %block.exit.4440
	movl	$8, %ecx
	lock		xaddq	%rcx, _heap_ptr_(%rip)
	movq	%rax, %rdx
	andq	$-2, %rdx
	cmpq	$6, %rdx
	jne	.LBB11_112
# %bb.41:                               # %block.exit.4451
	movq	%rax, (%rcx)
	jne	.LBB11_112
# %bb.42:                               # %block.exit.4459
	movq	(%rcx), %rax
	cmpq	$6, %rax
	je	.LBB11_61
# %bb.43:                               # %block.exit.4459
	cmpq	$7, %rax
	jne	.LBB11_112
# %bb.44:                               # %block.Cidr_Prelude.Bool.True.4463
	movl	$16, %ebx
	movl	$16, %esi
	lock		xaddq	%rsi, _heap_ptr_(%rip)
	movq	$3, (%rsi)
	movq	$str.3, 8(%rsi)
	movq	%r12, %rdi
	callq	.Lidris_str_eq
	lock		xaddq	%rbx, _heap_ptr_(%rip)
	movq	%rax, (%rbx)
	movq	%rdx, 8(%rbx)
	cmpq	$2, %rax
	jne	.LBB11_112
# %bb.45:                               # %block.CGrInt.4482
	xorl	%ecx, %ecx
	testq	%rdx, %rdx
	sete	%dl
	movl	$8, %eax
	lock		xaddq	%rax, _heap_ptr_(%rip)
	xorl	%esi, %esi
	testb	%sil, %sil
	jne	.LBB11_112
# %bb.46:                               # %block.exit.4498
	movb	%dl, %cl
	orq	$6, %rcx
	movq	%rcx, (%rax)
	movl	$8, %ecx
	lock		xaddq	%rcx, _heap_ptr_(%rip)
	movq	$7, (%rcx)
	xorl	%ecx, %ecx
	testb	%cl, %cl
	jne	.LBB11_112
# %bb.47:                               # %block.Cidr_Prelude.Bool.True.13421.i
	movq	(%rax), %rax
	cmpq	$6, %rax
	je	.LBB11_53
# %bb.48:                               # %block.Cidr_Prelude.Bool.True.13421.i
	cmpq	$7, %rax
	jne	.LBB11_112
# %bb.49:                               # %block.Cidr_Prelude.Bool.True.13426.i
	movl	$7, %eax
	cmpq	$6, %rax
	je	.LBB11_54
.LBB11_50:                              # %block.exit.13429.i
	cmpq	$7, %rax
	jne	.LBB11_112
# %bb.51:                               # %block.Cidr_Prelude.Bool.True.13433.i
	movl	$27, %eax
	jmp	.LBB11_55
.LBB11_53:
	movl	$6, %eax
	cmpq	$6, %rax
	jne	.LBB11_50
.LBB11_54:
	movl	$26, %eax
.LBB11_55:                              # %"idr_Decidable.Equality.Decidable.Equality.@Decidable.Equality.DecEq$Bool:!decEq:0.exit"
	movl	$8, %ecx
	lock		xaddq	%rcx, _heap_ptr_(%rip)
	movq	%rax, %rdx
	andq	$-2, %rdx
	cmpq	$26, %rdx
	jne	.LBB11_112
# %bb.56:                               # %block.exit.4515
	movq	%rax, (%rcx)
	jne	.LBB11_112
# %bb.57:                               # %block.exit.4523
	movq	(%rcx), %rax
	cmpq	$26, %rax
	je	.LBB11_61
# %bb.58:                               # %block.exit.4523
	cmpq	$27, %rax
	jne	.LBB11_112
# %bb.59:                               # %block.Cidr_Prelude.Basics.Yes.4527
	movq	%r12, %rdi
	callq	.Lidris_str_head
	movl	$16, %ebx
	movl	$16, %edi
	lock		xaddq	%rdi, _heap_ptr_(%rip)
	movq	%rax, (%rdi)
	movq	%rdx, 8(%rdi)
	movl	$16, %esi
	lock		xaddq	%rsi, _heap_ptr_(%rip)
	movq	$2, (%rsi)
	movq	$45, 8(%rsi)
	callq	.Lidris_int_eq
	lock		xaddq	%rbx, _heap_ptr_(%rip)
	movq	%rax, (%rbx)
	movq	%rdx, 8(%rbx)
	cmpq	$2, %rax
	jne	.LBB11_112
# %bb.60:                               # %block.CGrInt.4553
	cmpq	$1, %rdx
	movl	$7, %eax
	sbbq	$0, %rax
	jmp	.LBB11_62
.LBB11_61:
	movl	$6, %eax
.LBB11_62:                              # %block.exit.4562
	movl	$8, %ecx
	lock		xaddq	%rcx, _heap_ptr_(%rip)
	movq	%rax, %rdx
	andq	$-2, %rdx
	cmpq	$6, %rdx
	jne	.LBB11_112
# %bb.63:                               # %block.exit.4573
	movq	%rax, (%rcx)
	jne	.LBB11_112
# %bb.64:                               # %block.exit.4581
	movq	(%rcx), %rax
	cmpq	$7, %rax
	je	.LBB11_71
# %bb.65:                               # %block.exit.4581
	cmpq	$6, %rax
	jne	.LBB11_112
# %bb.66:                               # %block.Cidr_Prelude.Bool.False.4584
	movq	(%r12), %rax
	cmpq	$6, %rax
	jle	.LBB11_73
# %bb.67:                               # %block.Cidr_Prelude.Bool.False.4584
	cmpq	$10, %rax
	jg	.LBB11_77
# %bb.68:                               # %block.Cidr_Prelude.Bool.False.4584
	cmpq	$8, %rax
	jg	.LBB11_93
# %bb.69:                               # %block.Cidr_Prelude.Bool.False.4584
	cmpq	$7, %rax
	je	.LBB11_98
# %bb.70:                               # %block.Cidr_Prelude.Bool.False.4584
	cmpq	$8, %rax
	je	.LBB11_104
	jmp	.LBB11_112
.LBB11_71:                              # %block.Cidr_Prelude.Bool.True.4699
	movl	$16, %r15d
	movl	$16, %ebx
	lock		xaddq	%rbx, _heap_ptr_(%rip)
	movq	$3, (%rbx)
	movq	$str.8, 8(%rbx)
	movl	$16, %esi
	lock		xaddq	%rsi, _heap_ptr_(%rip)
	movq	$3, (%rsi)
	movq	$str.9, 8(%rsi)
	movq	%r12, %rdi
	callq	.Lidris_str_concat
	lock		xaddq	%r15, _heap_ptr_(%rip)
	movq	%rax, (%r15)
	movq	%rdx, 8(%r15)
	movq	%rbx, %rdi
	movq	%r15, %rsi
	callq	.Lidris_str_concat
.LBB11_72:                              # %block.exit.4722
                                        # implicit-def: $xmm0
                                        # implicit-def: $rsi
	jmp	.LBB11_108
.LBB11_73:                              # %block.Cidr_Prelude.Bool.False.4584
	cmpq	$2, %rax
	jle	.LBB11_80
# %bb.74:                               # %block.Cidr_Prelude.Bool.False.4584
	cmpq	$4, %rax
	jg	.LBB11_96
# %bb.75:                               # %block.Cidr_Prelude.Bool.False.4584
	cmpq	$3, %rax
	jne	.LBB11_103
# %bb.76:                               # %block.CGrString.4605
	movq	(%r12), %rax
	movq	8(%r12), %rdx
	jmp	.LBB11_72
.LBB11_77:                              # %block.Cidr_Prelude.Bool.False.4584
	cmpq	$12, %rax
	jg	.LBB11_100
# %bb.78:                               # %block.Cidr_Prelude.Bool.False.4584
	cmpq	$11, %rax
	je	.LBB11_102
# %bb.79:                               # %block.Cidr_Prelude.Bool.False.4584
	cmpq	$12, %rax
	je	.LBB11_104
	jmp	.LBB11_112
.LBB11_80:                              # %block.Cidr_Prelude.Bool.False.4584
	testq	%rax, %rax
	je	.LBB11_98
# %bb.81:                               # %block.Cidr_Prelude.Bool.False.4584
	cmpq	$1, %rax
	jne	.LBB11_105
# %bb.82:                               # %block.CGrFloat.4591
	movq	(%r12), %rax
	movss	8(%r12), %xmm0          # xmm0 = mem[0],zero,zero,zero
	jmp	.LBB11_99
.LBB11_93:                              # %block.Cidr_Prelude.Bool.False.4584
	cmpq	$9, %rax
	je	.LBB11_98
# %bb.94:                               # %block.Cidr_Prelude.Bool.False.4584
	cmpq	$10, %rax
	jne	.LBB11_112
# %bb.95:                               # %"block.Cidr_{U_Main.{adder_0}_1}.4654"
	movq	(%r12), %rax
	movq	8(%r12), %rcx
	movq	16(%r12), %rdi
	movq	24(%r12), %rbx
                                        # implicit-def: $xmm0
                                        # implicit-def: $rsi
                                        # implicit-def: $rdx
	jmp	.LBB11_111
.LBB11_96:                              # %block.Cidr_Prelude.Bool.False.4584
	cmpq	$5, %rax
	je	.LBB11_104
# %bb.97:                               # %block.Cidr_Prelude.Bool.False.4584
	cmpq	$6, %rax
	jne	.LBB11_112
.LBB11_98:                              # %block.CErased.4586
	movq	(%r12), %rax
                                        # implicit-def: $xmm0
.LBB11_99:                              # %block.exit.4722
                                        # implicit-def: $rsi
.LBB11_107:                             # %block.exit.4722
                                        # implicit-def: $rdx
.LBB11_108:                             # %block.exit.4722
                                        # implicit-def: $rcx
.LBB11_109:                             # %block.exit.4722
                                        # implicit-def: $rdi
.LBB11_110:                             # %block.exit.4722
                                        # implicit-def: $rbx
.LBB11_111:                             # %block.exit.4722
	movq	%rax, (%r14)
	movss	%xmm0, 8(%r14)
	movq	%rsi, 12(%r14)
	movq	%rdx, 20(%r14)
	movq	%rcx, 28(%r14)
	movq	%rdi, 36(%r14)
	movq	%rbx, 44(%r14)
	movq	%r14, %rax
	addq	$56, %rsp
	.cfi_def_cfa_offset 56
	popq	%rbx
	.cfi_def_cfa_offset 48
	popq	%r12
	.cfi_def_cfa_offset 40
	popq	%r13
	.cfi_def_cfa_offset 32
	popq	%r14
	.cfi_def_cfa_offset 24
	popq	%r15
	.cfi_def_cfa_offset 16
	popq	%rbp
	.cfi_def_cfa_offset 8
	retq
.LBB11_100:                             # %block.Cidr_Prelude.Bool.False.4584
	.cfi_def_cfa_offset 112
	cmpq	$13, %rax
	je	.LBB11_104
# %bb.101:                              # %block.Cidr_Prelude.Bool.False.4584
	cmpq	$14, %rax
	jne	.LBB11_112
.LBB11_102:                             # %"block.Cidr_{U_Main.{main_9}_1}.4665"
	movq	(%r12), %rax
	movq	8(%r12), %rcx
                                        # implicit-def: $xmm0
                                        # implicit-def: $rsi
                                        # implicit-def: $rdx
	jmp	.LBB11_109
.LBB11_103:                             # %block.Cidr_Prelude.Bool.False.4584
	cmpq	$4, %rax
	jne	.LBB11_112
.LBB11_104:                             # %block.Cidr_Builtins.MkPair.4612
	movq	(%r12), %rax
	movq	8(%r12), %rcx
	movq	16(%r12), %rdi
                                        # implicit-def: $xmm0
                                        # implicit-def: $rsi
                                        # implicit-def: $rdx
	jmp	.LBB11_110
.LBB11_105:                             # %block.Cidr_Prelude.Bool.False.4584
	cmpq	$2, %rax
	jne	.LBB11_112
# %bb.106:                              # %block.CGrInt.4598
	movq	(%r12), %rax
	movq	8(%r12), %rsi
                                        # implicit-def: $xmm0
	jmp	.LBB11_107
.LBB11_112:                             # %error_block.i
	movl	$666, %edi              # imm = 0x29A
	callq	_prim_int_print
.Lfunc_end11:
	.size	.Lidr_Prelude.Show.primNumShow, .Lfunc_end11-.Lidr_Prelude.Show.primNumShow
	.cfi_endproc
                                        # -- End function
	.p2align	4, 0x90         # -- Begin function idr_Main.printFmt
	.type	.Lidr_Main.printFmt,@function
.Lidr_Main.printFmt:                    # @idr_Main.printFmt
	.cfi_startproc
# %bb.0:                                # %idr_Main.printFmt.entry
	pushq	%r14
	.cfi_def_cfa_offset 16
	pushq	%rbx
	.cfi_def_cfa_offset 24
	pushq	%rax
	.cfi_def_cfa_offset 32
	.cfi_offset %rbx, -24
	.cfi_offset %r14, -16
	movq	%rsi, %rbx
	movq	%rdi, %r14
	jmp	.LBB12_2
	.p2align	4, 0x90
.LBB12_1:                               # %block.Cidr_Main.Lit.4761
                                        #   in Loop: Header=BB12_2 Depth=1
	movq	%rdx, %rdi
	callq	.Lidris_str_concat
	movq	%rdx, %rcx
	movl	$16, %edx
	lock		xaddq	%rdx, _heap_ptr_(%rip)
	movq	%rax, (%rdx)
	movq	%rcx, 8(%rdx)
.LBB12_2:                               # %tailrecurse
                                        # =>This Inner Loop Header: Depth=1
	movq	(%rbx), %rax
	cmpq	$31, %rax
	jg	.LBB12_6
# %bb.3:                                # %tailrecurse
                                        #   in Loop: Header=BB12_2 Depth=1
	cmpq	$30, %rax
	jne	.LBB12_8
# %bb.4:                                #   in Loop: Header=BB12_2 Depth=1
	movl	$30, %eax
                                        # implicit-def: $rsi
                                        # implicit-def: $rbx
	cmpq	$31, %rax
	jg	.LBB12_14
.LBB12_10:                              # %block.exit.4754
                                        #   in Loop: Header=BB12_2 Depth=1
	cmpq	$30, %rax
	je	.LBB12_16
# %bb.11:                               # %block.exit.4754
                                        #   in Loop: Header=BB12_2 Depth=1
	cmpq	$31, %rax
	je	.LBB12_1
	jmp	.LBB12_21
	.p2align	4, 0x90
.LBB12_6:                               # %tailrecurse
                                        #   in Loop: Header=BB12_2 Depth=1
	cmpq	$32, %rax
	jne	.LBB12_12
# %bb.7:                                # %block.Cidr_Main.Number.4740
                                        #   in Loop: Header=BB12_2 Depth=1
	movq	8(%rbx), %rsi
	movl	$32, %eax
                                        # implicit-def: $rbx
	cmpq	$31, %rax
	jle	.LBB12_10
	jmp	.LBB12_14
	.p2align	4, 0x90
.LBB12_8:                               # %tailrecurse
                                        #   in Loop: Header=BB12_2 Depth=1
	cmpq	$31, %rax
	jne	.LBB12_21
# %bb.9:                                # %block.Cidr_Main.Lit.4737
                                        #   in Loop: Header=BB12_2 Depth=1
	movq	8(%rbx), %rsi
	movq	16(%rbx), %rbx
	movl	$31, %eax
	cmpq	$31, %rax
	jg	.LBB12_14
	jmp	.LBB12_10
	.p2align	4, 0x90
.LBB12_12:                              # %tailrecurse
                                        #   in Loop: Header=BB12_2 Depth=1
	cmpq	$33, %rax
	jne	.LBB12_21
# %bb.13:                               # %block.Cidr_Main.Str.4747
                                        #   in Loop: Header=BB12_2 Depth=1
	movq	8(%rbx), %rsi
	movl	$33, %eax
                                        # implicit-def: $rbx
	cmpq	$31, %rax
	jle	.LBB12_10
.LBB12_14:                              # %block.exit.4754
	cmpq	$32, %rax
	jne	.LBB12_17
# %bb.15:                               # %block.Cidr_Main.Number.4770
	movl	$12, %eax
	jmp	.LBB12_19
.LBB12_16:                              # %block.Cidr_Main.End.4757
	movq	(%rdx), %rax
	movq	8(%rdx), %rcx
                                        # implicit-def: $rsi
                                        # implicit-def: $rdx
	jmp	.LBB12_20
.LBB12_17:                              # %block.exit.4754
	cmpq	$33, %rax
	jne	.LBB12_21
# %bb.18:                               # %block.Cidr_Main.Str.4773
	movl	$13, %eax
.LBB12_19:                              # %block.exit.4776
                                        # implicit-def: $rcx
.LBB12_20:                              # %block.exit.4776
	movq	%rax, (%r14)
	movq	%rcx, 8(%r14)
	movq	%rsi, 16(%r14)
	movq	%rdx, 24(%r14)
	movq	%r14, %rax
	addq	$8, %rsp
	.cfi_def_cfa_offset 24
	popq	%rbx
	.cfi_def_cfa_offset 16
	popq	%r14
	.cfi_def_cfa_offset 8
	retq
.LBB12_21:                              # %error_block
	.cfi_def_cfa_offset 32
	movl	$666, %edi              # imm = 0x29A
	callq	_prim_int_print
.Lfunc_end12:
	.size	.Lidr_Main.printFmt, .Lfunc_end12-.Lidr_Main.printFmt
	.cfi_endproc
                                        # -- End function
	.p2align	4, 0x90         # -- Begin function idr_Prelude.Interactive.printLn'
	.type	".Lidr_Prelude.Interactive.printLn'",@function
".Lidr_Prelude.Interactive.printLn'":   # @"idr_Prelude.Interactive.printLn'"
	.cfi_startproc
# %bb.0:                                # %"idr_Prelude.Interactive.printLn'.entry"
	pushq	%rbx
	.cfi_def_cfa_offset 16
	subq	$64, %rsp
	.cfi_def_cfa_offset 80
	.cfi_offset %rbx, -16
	movq	%rsi, %rax
	movq	%rdi, %rcx
	leaq	8(%rsp), %rdi
	movq	%rcx, %rsi
	movq	%rax, %rdx
	callq	".Lidr_{APPLY_0}"
	movq	52(%rsp), %rsi
	movq	44(%rsp), %r8
	movq	36(%rsp), %r9
	movq	28(%rsp), %rax
	movq	20(%rsp), %rcx
	movss	16(%rsp), %xmm0         # xmm0 = mem[0],zero,zero,zero
	movq	8(%rsp), %rdx
	movl	$52, %edi
	lock		xaddq	%rdi, _heap_ptr_(%rip)
	cmpq	$6, %rdx
	jle	.LBB13_1
# %bb.14:                               # %"idr_Prelude.Interactive.printLn'.entry"
	cmpq	$10, %rdx
	jg	.LBB13_23
# %bb.15:                               # %"idr_Prelude.Interactive.printLn'.entry"
	cmpq	$8, %rdx
	jg	.LBB13_19
# %bb.16:                               # %"idr_Prelude.Interactive.printLn'.entry"
	cmpq	$7, %rdx
	jne	.LBB13_17
# %bb.35:                               # %block.Cidr_Prelude.Bool.True.4842
	movq	$7, (%rdi)
	jmp	.LBB13_22
.LBB13_1:                               # %"idr_Prelude.Interactive.printLn'.entry"
	cmpq	$2, %rdx
	jle	.LBB13_2
# %bb.6:                                # %"idr_Prelude.Interactive.printLn'.entry"
	cmpq	$4, %rdx
	jg	.LBB13_11
# %bb.7:                                # %"idr_Prelude.Interactive.printLn'.entry"
	cmpq	$3, %rdx
	jne	.LBB13_8
# %bb.33:                               # %block.CGrString.4816
	movq	$3, (%rdi)
	movq	%rax, 8(%rdi)
	jmp	.LBB13_22
.LBB13_23:                              # %"idr_Prelude.Interactive.printLn'.entry"
	cmpq	$12, %rdx
	jg	.LBB13_27
# %bb.24:                               # %"idr_Prelude.Interactive.printLn'.entry"
	cmpq	$11, %rdx
	jne	.LBB13_25
# %bb.37:                               # %"block.Cidr_{U_Main.{main_9}_1}.4868"
	movq	$11, (%rdi)
	movq	%r9, 8(%rdi)
	jmp	.LBB13_22
.LBB13_2:                               # %"idr_Prelude.Interactive.printLn'.entry"
	testq	%rdx, %rdx
	je	.LBB13_31
# %bb.3:                                # %"idr_Prelude.Interactive.printLn'.entry"
	cmpq	$1, %rdx
	jne	.LBB13_4
# %bb.32:                               # %block.CGrFloat.4804
	movq	$1, (%rdi)
	movss	%xmm0, 8(%rdi)
	jmp	.LBB13_22
.LBB13_11:                              # %"idr_Prelude.Interactive.printLn'.entry"
	cmpq	$5, %rdx
	jne	.LBB13_12
# %bb.34:                               # %"block.Cidr_Data.Vect.::.4830"
	movq	$5, (%rdi)
	jmp	.LBB13_10
.LBB13_19:                              # %"idr_Prelude.Interactive.printLn'.entry"
	cmpq	$9, %rdx
	jne	.LBB13_20
# %bb.36:                               # %block.Cidr_Prelude.List.Nil.4854
	movq	$9, (%rdi)
	jmp	.LBB13_22
.LBB13_27:                              # %"idr_Prelude.Interactive.printLn'.entry"
	cmpq	$13, %rdx
	jne	.LBB13_28
# %bb.38:                               # %"block.Cidr_{U_Main.{printFmt_15}_1}.4882"
	movq	$13, (%rdi)
	jmp	.LBB13_10
.LBB13_31:                              # %block.CErased.4800
	movq	$0, (%rdi)
	jmp	.LBB13_22
.LBB13_8:                               # %"idr_Prelude.Interactive.printLn'.entry"
	cmpq	$4, %rdx
	jne	.LBB13_39
# %bb.9:                                # %block.Cidr_Builtins.MkPair.4822
	movq	$4, (%rdi)
	jmp	.LBB13_10
.LBB13_4:                               # %"idr_Prelude.Interactive.printLn'.entry"
	cmpq	$2, %rdx
	jne	.LBB13_39
# %bb.5:                                # %block.CGrInt.4810
	movq	$2, (%rdi)
	movq	%rcx, 8(%rdi)
	jmp	.LBB13_22
.LBB13_12:                              # %"idr_Prelude.Interactive.printLn'.entry"
	cmpq	$6, %rdx
	jne	.LBB13_39
# %bb.13:                               # %block.Cidr_Prelude.Bool.False.4838
	movq	$6, (%rdi)
	jmp	.LBB13_22
.LBB13_17:                              # %"idr_Prelude.Interactive.printLn'.entry"
	cmpq	$8, %rdx
	jne	.LBB13_39
# %bb.18:                               # %"block.Cidr_Prelude.List.::.4846"
	movq	$8, (%rdi)
	jmp	.LBB13_10
.LBB13_25:                              # %"idr_Prelude.Interactive.printLn'.entry"
	cmpq	$12, %rdx
	jne	.LBB13_39
# %bb.26:                               # %"block.Cidr_{U_Main.{printFmt_14}_1}.4874"
	movq	$12, (%rdi)
.LBB13_10:                              # %block.exit.4896
	movq	%r9, 8(%rdi)
	movq	%r8, 16(%rdi)
.LBB13_22:                              # %block.exit.4896
	movl	$16, %ebx
	movl	$16, %esi
	lock		xaddq	%rsi, _heap_ptr_(%rip)
	movq	$3, (%rsi)
	movq	$str.4, 8(%rsi)
	callq	.Lidris_str_concat
	lock		xaddq	%rbx, _heap_ptr_(%rip)
	movq	%rax, (%rbx)
	movq	%rdx, 8(%rbx)
	movq	%rdx, %rdi
	callq	_prim_string_print
	movl	$8, %eax
	lock		xaddq	%rax, _heap_ptr_(%rip)
	movq	$15, (%rax)
	addq	$64, %rsp
	.cfi_def_cfa_offset 16
	popq	%rbx
	.cfi_def_cfa_offset 8
	retq
.LBB13_20:                              # %"idr_Prelude.Interactive.printLn'.entry"
	.cfi_def_cfa_offset 80
	cmpq	$10, %rdx
	jne	.LBB13_39
# %bb.21:                               # %"block.Cidr_{U_Main.{adder_0}_1}.4858"
	movq	$10, (%rdi)
	movq	%r9, 8(%rdi)
	movq	%r8, 16(%rdi)
	movq	%rsi, 24(%rdi)
	jmp	.LBB13_22
.LBB13_28:                              # %"idr_Prelude.Interactive.printLn'.entry"
	cmpq	$14, %rdx
	jne	.LBB13_39
# %bb.29:                               # %"block.Cidr_{U_Prelude.Show.{Data.Vect.@Prelude.Show.Show$Vect len elem:!show:0_lam_28}_1}.4890"
	movq	$14, (%rdi)
	movq	%r9, 8(%rdi)
	jmp	.LBB13_22
.LBB13_39:                              # %error_block
	movl	$666, %edi              # imm = 0x29A
	callq	_prim_int_print
.Lfunc_end13:
	.size	".Lidr_Prelude.Interactive.printLn'", .Lfunc_end13-".Lidr_Prelude.Interactive.printLn'"
	.cfi_endproc
                                        # -- End function
	.p2align	4, 0x90         # -- Begin function idr_Prelude.Show.protectEsc
	.type	.Lidr_Prelude.Show.protectEsc,@function
.Lidr_Prelude.Show.protectEsc:          # @idr_Prelude.Show.protectEsc
	.cfi_startproc
# %bb.0:                                # %idr_Prelude.Show.protectEsc.entry
	pushq	%r15
	.cfi_def_cfa_offset 16
	pushq	%r14
	.cfi_def_cfa_offset 24
	pushq	%r12
	.cfi_def_cfa_offset 32
	pushq	%rbx
	.cfi_def_cfa_offset 40
	subq	$56, %rsp
	.cfi_def_cfa_offset 96
	.cfi_offset %rbx, -40
	.cfi_offset %r12, -32
	.cfi_offset %r14, -24
	.cfi_offset %r15, -16
	movq	%rdx, %r15
	movq	%rsi, %r14
	movq	%rdi, %r12
	movl	$16, %ebx
	movl	$16, %esi
	lock		xaddq	%rsi, _heap_ptr_(%rip)
	movq	$3, (%rsi)
	movq	$str.3, 8(%rsi)
	movq	%rdx, %rdi
	callq	.Lidris_str_eq
	lock		xaddq	%rbx, _heap_ptr_(%rip)
	movq	%rax, (%rbx)
	movq	%rdx, 8(%rbx)
	cmpq	$2, %rax
	jne	.LBB14_44
# %bb.1:                                # %block.CGrInt.4936
	xorl	%ecx, %ecx
	testq	%rdx, %rdx
	sete	%dl
	movl	$8, %eax
	lock		xaddq	%rax, _heap_ptr_(%rip)
	xorl	%esi, %esi
	testb	%sil, %sil
	jne	.LBB14_44
# %bb.2:                                # %block.exit.4952
	movb	%dl, %cl
	orq	$6, %rcx
	movq	%rcx, (%rax)
	movl	$8, %ecx
	lock		xaddq	%rcx, _heap_ptr_(%rip)
	movq	$7, (%rcx)
	xorl	%ecx, %ecx
	testb	%cl, %cl
	jne	.LBB14_44
# %bb.3:                                # %block.Cidr_Prelude.Bool.True.13421.i
	movq	(%rax), %rax
	cmpq	$6, %rax
	je	.LBB14_4
# %bb.5:                                # %block.Cidr_Prelude.Bool.True.13421.i
	cmpq	$7, %rax
	jne	.LBB14_44
# %bb.6:                                # %block.Cidr_Prelude.Bool.True.13426.i
	movl	$7, %eax
	cmpq	$6, %rax
	je	.LBB14_8
.LBB14_9:                               # %block.exit.13429.i
	cmpq	$7, %rax
	jne	.LBB14_44
# %bb.10:                               # %block.Cidr_Prelude.Bool.True.13433.i
	movl	$27, %eax
	jmp	.LBB14_11
.LBB14_4:
	movl	$6, %eax
	cmpq	$6, %rax
	jne	.LBB14_9
.LBB14_8:
	movl	$26, %eax
.LBB14_11:                              # %"idr_Decidable.Equality.Decidable.Equality.@Decidable.Equality.DecEq$Bool:!decEq:0.exit"
	movl	$8, %ecx
	lock		xaddq	%rcx, _heap_ptr_(%rip)
	movq	%rax, %rdx
	andq	$-2, %rdx
	cmpq	$26, %rdx
	jne	.LBB14_44
# %bb.12:                               # %block.exit.4969
	movq	%rax, (%rcx)
	jne	.LBB14_44
# %bb.13:                               # %block.exit.4977
	movq	(%rcx), %rax
	cmpq	$26, %rax
	je	.LBB14_14
# %bb.15:                               # %block.exit.4977
	cmpq	$27, %rax
	jne	.LBB14_44
# %bb.16:                               # %block.Cidr_Prelude.Basics.Yes.4981
	movq	%r15, %rdi
	callq	.Lidris_str_head
	movl	$16, %ecx
	lock		xaddq	%rcx, _heap_ptr_(%rip)
	movq	%rax, (%rcx)
	movq	%rdx, 8(%rcx)
	movq	%rsp, %rdi
	movq	%r12, %rsi
	movq	%rcx, %rdx
	callq	".Lidr_{APPLY_0}"
	movq	44(%rsp), %rdi
	movq	36(%rsp), %r8
	movq	28(%rsp), %rcx
	movq	20(%rsp), %rdx
	movq	12(%rsp), %rbx
	movss	8(%rsp), %xmm0          # xmm0 = mem[0],zero,zero,zero
	movq	(%rsp), %rsi
	jmp	.LBB14_17
.LBB14_14:
	movl	$6, %esi
                                        # implicit-def: $xmm0
                                        # implicit-def: $rbx
                                        # implicit-def: $rdx
                                        # implicit-def: $rcx
                                        # implicit-def: $r8
                                        # implicit-def: $rdi
.LBB14_17:                              # %block.exit.4990
	movl	$52, %eax
	lock		xaddq	%rax, _heap_ptr_(%rip)
	cmpq	$6, %rsi
	jle	.LBB14_18
# %bb.31:                               # %block.exit.4990
	cmpq	$10, %rsi
	jg	.LBB14_45
# %bb.32:                               # %block.exit.4990
	cmpq	$8, %rsi
	jg	.LBB14_36
# %bb.33:                               # %block.exit.4990
	cmpq	$7, %rsi
	jne	.LBB14_34
# %bb.57:                               # %block.Cidr_Prelude.Bool.True.5041
	movq	$7, (%rax)
	jmp	.LBB14_39
.LBB14_18:                              # %block.exit.4990
	cmpq	$2, %rsi
	jle	.LBB14_19
# %bb.23:                               # %block.exit.4990
	cmpq	$4, %rsi
	jg	.LBB14_28
# %bb.24:                               # %block.exit.4990
	cmpq	$3, %rsi
	jne	.LBB14_25
# %bb.55:                               # %block.CGrString.5015
	movq	$3, (%rax)
	movq	%rdx, 8(%rax)
	jmp	.LBB14_39
.LBB14_45:                              # %block.exit.4990
	cmpq	$12, %rsi
	jg	.LBB14_49
# %bb.46:                               # %block.exit.4990
	cmpq	$11, %rsi
	jne	.LBB14_47
# %bb.59:                               # %"block.Cidr_{U_Main.{main_9}_1}.5067"
	movq	$11, (%rax)
	movq	%rcx, 8(%rax)
	jmp	.LBB14_39
.LBB14_19:                              # %block.exit.4990
	testq	%rsi, %rsi
	je	.LBB14_53
# %bb.20:                               # %block.exit.4990
	cmpq	$1, %rsi
	jne	.LBB14_21
# %bb.54:                               # %block.CGrFloat.5003
	movq	$1, (%rax)
	movss	%xmm0, 8(%rax)
	jmp	.LBB14_39
.LBB14_36:                              # %block.exit.4990
	cmpq	$9, %rsi
	jne	.LBB14_37
# %bb.58:                               # %block.Cidr_Prelude.List.Nil.5053
	movq	$9, (%rax)
	jmp	.LBB14_39
.LBB14_28:                              # %block.exit.4990
	cmpq	$5, %rsi
	jne	.LBB14_29
# %bb.56:                               # %"block.Cidr_Data.Vect.::.5029"
	movq	$5, (%rax)
	jmp	.LBB14_27
.LBB14_49:                              # %block.exit.4990
	cmpq	$13, %rsi
	jne	.LBB14_50
# %bb.60:                               # %"block.Cidr_{U_Main.{printFmt_15}_1}.5081"
	movq	$13, (%rax)
	jmp	.LBB14_27
.LBB14_34:                              # %block.exit.4990
	cmpq	$8, %rsi
	jne	.LBB14_44
# %bb.35:                               # %"block.Cidr_Prelude.List.::.5045"
	movq	$8, (%rax)
	jmp	.LBB14_27
.LBB14_25:                              # %block.exit.4990
	cmpq	$4, %rsi
	jne	.LBB14_44
# %bb.26:                               # %block.Cidr_Builtins.MkPair.5021
	movq	$4, (%rax)
	jmp	.LBB14_27
.LBB14_47:                              # %block.exit.4990
	cmpq	$12, %rsi
	jne	.LBB14_44
# %bb.48:                               # %"block.Cidr_{U_Main.{printFmt_14}_1}.5073"
	movq	$12, (%rax)
.LBB14_27:                              # %block.exit.5095
	movq	%rcx, 8(%rax)
	movq	%r8, 16(%rax)
.LBB14_39:                              # %block.exit.5095
	movq	(%rax), %rcx
	cmpq	$6, %rcx
	jle	.LBB14_40
# %bb.66:                               # %block.exit.5095
	cmpq	$10, %rcx
	jg	.LBB14_72
# %bb.67:                               # %block.exit.5095
	cmpq	$8, %rcx
	jg	.LBB14_70
# %bb.68:                               # %block.exit.5095
	cmpq	$7, %rcx
	je	.LBB14_77
# %bb.69:                               # %block.exit.5095
	cmpq	$8, %rcx
	je	.LBB14_77
	jmp	.LBB14_44
.LBB14_40:                              # %block.exit.5095
	cmpq	$2, %rcx
	jle	.LBB14_41
# %bb.61:                               # %block.exit.5095
	cmpq	$4, %rcx
	jg	.LBB14_64
# %bb.62:                               # %block.exit.5095
	cmpq	$3, %rcx
	je	.LBB14_77
# %bb.63:                               # %block.exit.5095
	cmpq	$4, %rcx
	je	.LBB14_77
	jmp	.LBB14_44
.LBB14_72:                              # %block.exit.5095
	cmpq	$12, %rcx
	jg	.LBB14_75
# %bb.73:                               # %block.exit.5095
	cmpq	$11, %rcx
	je	.LBB14_77
# %bb.74:                               # %block.exit.5095
	cmpq	$12, %rcx
	je	.LBB14_77
	jmp	.LBB14_44
.LBB14_41:                              # %block.exit.5095
	testq	%rcx, %rcx
	je	.LBB14_77
# %bb.42:                               # %block.exit.5095
	cmpq	$1, %rcx
	je	.LBB14_77
# %bb.43:                               # %block.exit.5095
	cmpq	$2, %rcx
	je	.LBB14_77
	jmp	.LBB14_44
.LBB14_70:                              # %block.exit.5095
	cmpq	$9, %rcx
	je	.LBB14_77
# %bb.71:                               # %block.exit.5095
	cmpq	$10, %rcx
	je	.LBB14_77
	jmp	.LBB14_44
.LBB14_64:                              # %block.exit.5095
	cmpq	$5, %rcx
	je	.LBB14_77
# %bb.65:                               # %block.exit.5095
	cmpq	$6, %rcx
	je	.LBB14_77
	jmp	.LBB14_44
.LBB14_75:                              # %block.exit.5095
	cmpq	$13, %rcx
	je	.LBB14_77
# %bb.76:                               # %block.exit.5095
	cmpq	$14, %rcx
	jne	.LBB14_44
.LBB14_77:                              # %"block.Cidr_{U_Prelude.Show.{Data.Vect.@Prelude.Show.Show$Vect len elem:!show:0_lam_28}_1}.5201"
	movq	(%rax), %rax
	cmpq	$6, %rax
	je	.LBB14_78
# %bb.79:                               # %block.exit.5208
	cmpq	$7, %rax
	jne	.LBB14_44
# %bb.80:                               # %block.Cidr_Prelude.Bool.True.5213
	movl	$str.10, %eax
	jmp	.LBB14_81
.LBB14_78:
	movl	$str.3, %eax
.LBB14_81:                              # %block.exit.5215
	movl	$3, %ecx
	movl	$16, %ebx
	movl	$16, %edi
	lock		xaddq	%rdi, _heap_ptr_(%rip)
	movq	%rcx, (%rdi)
	movq	%rax, 8(%rdi)
	movq	%r15, %rsi
	callq	.Lidris_str_concat
	lock		xaddq	%rbx, _heap_ptr_(%rip)
	movq	%rax, (%rbx)
	movq	%rdx, 8(%rbx)
	movq	%r14, %rdi
	movq	%rbx, %rsi
	addq	$56, %rsp
	.cfi_def_cfa_offset 40
	popq	%rbx
	.cfi_def_cfa_offset 32
	popq	%r12
	.cfi_def_cfa_offset 24
	popq	%r14
	.cfi_def_cfa_offset 16
	popq	%r15
	.cfi_def_cfa_offset 8
	jmp	.Lidris_str_concat      # TAILCALL
.LBB14_53:                              # %block.CErased.4999
	.cfi_def_cfa_offset 96
	movq	$0, (%rax)
	jmp	.LBB14_39
.LBB14_21:                              # %block.exit.4990
	cmpq	$2, %rsi
	jne	.LBB14_44
# %bb.22:                               # %block.CGrInt.5009
	movq	$2, (%rax)
	movq	%rbx, 8(%rax)
	jmp	.LBB14_39
.LBB14_37:                              # %block.exit.4990
	cmpq	$10, %rsi
	jne	.LBB14_44
# %bb.38:                               # %"block.Cidr_{U_Main.{adder_0}_1}.5057"
	movq	$10, (%rax)
	movq	%rcx, 8(%rax)
	movq	%r8, 16(%rax)
	movq	%rdi, 24(%rax)
	jmp	.LBB14_39
.LBB14_29:                              # %block.exit.4990
	cmpq	$6, %rsi
	jne	.LBB14_44
# %bb.30:                               # %block.Cidr_Prelude.Bool.False.5037
	movq	$6, (%rax)
	jmp	.LBB14_39
.LBB14_50:                              # %block.exit.4990
	cmpq	$14, %rsi
	jne	.LBB14_44
# %bb.51:                               # %"block.Cidr_{U_Prelude.Show.{Data.Vect.@Prelude.Show.Show$Vect len elem:!show:0_lam_28}_1}.5089"
	movq	$14, (%rax)
	movq	%rcx, 8(%rax)
	jmp	.LBB14_39
.LBB14_44:                              # %error_block.i
	movl	$666, %edi              # imm = 0x29A
	callq	_prim_int_print
.Lfunc_end14:
	.size	.Lidr_Prelude.Show.protectEsc, .Lfunc_end14-.Lidr_Prelude.Show.protectEsc
	.cfi_endproc
                                        # -- End function
	.p2align	4, 0x90         # -- Begin function idr_Prelude.Show.showLitString
	.type	.Lidr_Prelude.Show.showLitString,@function
.Lidr_Prelude.Show.showLitString:       # @idr_Prelude.Show.showLitString
	.cfi_startproc
# %bb.0:                                # %idr_Prelude.Show.showLitString.entry
	pushq	%rbp
	.cfi_def_cfa_offset 16
	pushq	%r15
	.cfi_def_cfa_offset 24
	pushq	%r14
	.cfi_def_cfa_offset 32
	pushq	%r13
	.cfi_def_cfa_offset 40
	pushq	%r12
	.cfi_def_cfa_offset 48
	pushq	%rbx
	.cfi_def_cfa_offset 56
	subq	$360, %rsp              # imm = 0x168
	.cfi_def_cfa_offset 416
	.cfi_offset %rbx, -56
	.cfi_offset %r12, -48
	.cfi_offset %r13, -40
	.cfi_offset %r14, -32
	.cfi_offset %r15, -24
	.cfi_offset %rbp, -16
	movq	%rdx, %rbp
	movq	%rdi, %r13
	movq	(%rsi), %rax
	cmpq	$9, %rax
	je	.LBB15_11
# %bb.1:                                # %idr_Prelude.Show.showLitString.entry
	cmpq	$8, %rax
	jne	.LBB15_171
# %bb.2:                                # %"block.Cidr_Prelude.List.::.5391"
	movq	8(%rsi), %rcx
	movq	16(%rsi), %r15
	movl	$8, %eax
	cmpq	$9, %rax
	je	.LBB15_12
.LBB15_3:                               # %block.exit.5399
	cmpq	$8, %rax
	jne	.LBB15_171
# %bb.4:                                # %"block.Cidr_Prelude.List.::.5402"
	cmpq	$2, (%rcx)
	jne	.LBB15_171
# %bb.5:                                # %block.CGrInt.5407
	movq	8(%rcx), %rax
	cmpq	$11, %rax
	jle	.LBB15_14
# %bb.6:                                # %block.CGrInt.5407
	cmpq	$33, %rax
	jg	.LBB15_19
# %bb.7:                                # %block.CGrInt.5407
	cmpq	$12, %rax
	je	.LBB15_28
# %bb.8:                                # %block.CGrInt.5407
	cmpq	$13, %rax
	je	.LBB15_29
# %bb.9:                                # %block.CGrInt.5407
	cmpq	$14, %rax
	jne	.LBB15_38
# %bb.10:                               # %block.int_14.5346.i
	movl	$8, %ecx
	lock		xaddq	%rcx, _heap_ptr_(%rip)
	movq	$48, (%rcx)
	movl	$16, %edx
	lock		xaddq	%rdx, _heap_ptr_(%rip)
	movq	$3, (%rdx)
	movq	$str.11, 8(%rdx)
	movl	$49, %eax
	jmp	.LBB15_78
.LBB15_11:
	movl	$9, %eax
                                        # implicit-def: $rcx
                                        # implicit-def: $r15
	cmpq	$9, %rax
	jne	.LBB15_3
.LBB15_12:                              # %block.Cidr_Prelude.List.Nil.5696
	movq	(%rbp), %rax
	movq	8(%rbp), %rdx
.LBB15_13:                              # %block.exit.5700
	movq	%rax, (%r13)
	movss	%xmm0, 8(%r13)
	movq	%rax, 12(%r13)
	movq	%rdx, 20(%r13)
	movq	%rax, 28(%r13)
	movq	%rax, 36(%r13)
	movq	%rax, 44(%r13)
	jmp	.LBB15_138
.LBB15_14:                              # %block.CGrInt.5407
	cmpq	$8, %rax
	jle	.LBB15_23
# %bb.15:                               # %block.CGrInt.5407
	cmpq	$9, %rax
	je	.LBB15_30
# %bb.16:                               # %block.CGrInt.5407
	cmpq	$10, %rax
	je	.LBB15_31
# %bb.17:                               # %block.CGrInt.5407
	cmpq	$11, %rax
	jne	.LBB15_38
# %bb.18:                               # %block.int_11.5343.i
	movl	$45, %eax
	jmp	.LBB15_27
.LBB15_19:                              # %block.CGrInt.5407
	cmpq	$34, %rax
	je	.LBB15_32
# %bb.20:                               # %block.CGrInt.5407
	cmpq	$92, %rax
	je	.LBB15_37
# %bb.21:                               # %block.CGrInt.5407
	cmpq	$127, %rax
	jne	.LBB15_38
# %bb.22:                               # %block.int_127.5363.i
	movl	$51, %eax
	jmp	.LBB15_27
.LBB15_23:                              # %block.CGrInt.5407
	cmpq	$7, %rax
	je	.LBB15_26
# %bb.24:                               # %block.CGrInt.5407
	cmpq	$8, %rax
	jne	.LBB15_38
# %bb.25:                               # %block.int_8.5340.i
	movl	$42, %eax
	jmp	.LBB15_27
.LBB15_26:
	movl	$41, %eax
	jmp	.LBB15_27
.LBB15_28:                              # %block.int_12.5344.i
	movl	$46, %eax
	jmp	.LBB15_27
.LBB15_29:                              # %block.int_13.5345.i
	movl	$47, %eax
	jmp	.LBB15_27
.LBB15_30:                              # %block.int_9.5341.i
	movl	$43, %eax
	jmp	.LBB15_27
.LBB15_31:                              # %block.int_10.5342.i
	movl	$44, %eax
	jmp	.LBB15_27
.LBB15_32:                              # %block.int_34.5576
	movl	$16, %ebx
	lock		xaddq	%rbx, _heap_ptr_(%rip)
	movq	$3, (%rbx)
	movq	$str.12, 8(%rbx)
	leaq	304(%rsp), %rdi
	movq	%r15, %rsi
	movq	%rbp, %rdx
	callq	.Lidr_Prelude.Show.showLitString
	movq	348(%rsp), %rdi
	movq	340(%rsp), %r8
	movq	332(%rsp), %rax
	movq	324(%rsp), %rcx
	movq	316(%rsp), %rbp
	movss	312(%rsp), %xmm0        # xmm0 = mem[0],zero,zero,zero
	movq	304(%rsp), %rdx
	movl	$52, %esi
	lock		xaddq	%rsi, _heap_ptr_(%rip)
	cmpq	$6, %rdx
	jle	.LBB15_62
# %bb.33:                               # %block.int_34.5576
	cmpq	$10, %rdx
	jg	.LBB15_66
# %bb.34:                               # %block.int_34.5576
	cmpq	$8, %rdx
	jg	.LBB15_148
# %bb.35:                               # %block.int_34.5576
	cmpq	$7, %rdx
	jne	.LBB15_154
# %bb.36:                               # %block.Cidr_Prelude.Bool.True.5632
	movq	$7, (%rsi)
	jmp	.LBB15_161
.LBB15_37:                              # %block.int_92.5362.i
	movl	$50, %eax
.LBB15_27:                              # %idr_Prelude.Show.showLitChar.exit
                                        # implicit-def: $rcx
.LBB15_77:                              # %idr_Prelude.Show.showLitChar.exit
                                        # implicit-def: $rdx
.LBB15_78:                              # %idr_Prelude.Show.showLitChar.exit
	movl	$24, %ebx
	lock		xaddq	%rbx, _heap_ptr_(%rip)
	cmpq	$43, %rax
	jle	.LBB15_83
# %bb.79:                               # %idr_Prelude.Show.showLitChar.exit
	cmpq	$46, %rax
	jle	.LBB15_87
# %bb.80:                               # %idr_Prelude.Show.showLitChar.exit
	cmpq	$49, %rax
	jg	.LBB15_93
# %bb.81:                               # %idr_Prelude.Show.showLitChar.exit
	cmpq	$47, %rax
	jne	.LBB15_95
# %bb.82:                               # %"block.Cidr_{U_Prelude.Show.{showLitChar_22}_1}.5441"
	movq	$47, (%rbx)
	jmp	.LBB15_109
.LBB15_83:                              # %idr_Prelude.Show.showLitChar.exit
	cmpq	$40, %rax
	jg	.LBB15_90
# %bb.84:                               # %idr_Prelude.Show.showLitChar.exit
	cmpq	$38, %rax
	je	.LBB15_97
# %bb.85:                               # %idr_Prelude.Show.showLitChar.exit
	cmpq	$39, %rax
	jne	.LBB15_98
# %bb.86:                               # %"block.Cidr_{U_prim__strCons_1}.5465"
	movq	$39, (%rbx)
	jmp	.LBB15_100
.LBB15_87:                              # %idr_Prelude.Show.showLitChar.exit
	cmpq	$44, %rax
	je	.LBB15_101
# %bb.88:                               # %idr_Prelude.Show.showLitChar.exit
	cmpq	$45, %rax
	jne	.LBB15_102
# %bb.89:                               # %"block.Cidr_{U_Prelude.Show.{showLitChar_20}_1}.5433"
	movq	$45, (%rbx)
	jmp	.LBB15_109
.LBB15_90:                              # %idr_Prelude.Show.showLitChar.exit
	cmpq	$41, %rax
	je	.LBB15_104
# %bb.91:                               # %idr_Prelude.Show.showLitChar.exit
	cmpq	$42, %rax
	jne	.LBB15_105
# %bb.92:                               # %"block.Cidr_{U_Prelude.Show.{showLitChar_17}_1}.5421"
	movq	$42, (%rbx)
	jmp	.LBB15_109
.LBB15_93:                              # %idr_Prelude.Show.showLitChar.exit
	cmpq	$50, %rax
	jne	.LBB15_107
# %bb.94:                               # %"block.Cidr_{U_Prelude.Show.{showLitChar_24}_1}.5445"
	movq	$50, (%rbx)
	jmp	.LBB15_109
.LBB15_38:                              # %block.default.5236.i
	movl	$8, %eax
	lock		xaddq	%rax, _heap_ptr_(%rip)
	movq	$0, (%rax)
	movq	%rcx, (%rsp)            # 8-byte Spill
	movq	8(%rcx), %rax
	movl	$16, %ecx
	lock		xaddq	%rcx, _heap_ptr_(%rip)
	movq	$2, (%rcx)
	movq	%rax, 8(%rcx)
	movl	$16, %ecx
	lock		xaddq	%rcx, _heap_ptr_(%rip)
	movq	%rcx, 56(%rsp)          # 8-byte Spill
	movq	$2, (%rcx)
	movq	%rax, 8(%rcx)
	movl	$8, %eax
	lock		xaddq	%rax, _heap_ptr_(%rip)
	movq	$0, (%rax)
	movl	$16, %eax
	lock		xaddq	%rax, _heap_ptr_(%rip)
	movq	%rax, 176(%rsp)         # 8-byte Spill
	movq	$3, (%rax)
	movq	$str.27, 8(%rax)
	movl	$16, %eax
	lock		xaddq	%rax, _heap_ptr_(%rip)
	movq	%rax, 168(%rsp)         # 8-byte Spill
	movq	$3, (%rax)
	movq	$str.28, 8(%rax)
	movl	$16, %eax
	lock		xaddq	%rax, _heap_ptr_(%rip)
	movq	%rax, 160(%rsp)         # 8-byte Spill
	movq	$3, (%rax)
	movq	$str.29, 8(%rax)
	movl	$16, %eax
	lock		xaddq	%rax, _heap_ptr_(%rip)
	movq	%rax, 152(%rsp)         # 8-byte Spill
	movq	$3, (%rax)
	movq	$str.30, 8(%rax)
	movl	$16, %eax
	lock		xaddq	%rax, _heap_ptr_(%rip)
	movq	%rax, 144(%rsp)         # 8-byte Spill
	movq	$3, (%rax)
	movq	$str.31, 8(%rax)
	movl	$16, %eax
	lock		xaddq	%rax, _heap_ptr_(%rip)
	movq	%rax, 136(%rsp)         # 8-byte Spill
	movq	$3, (%rax)
	movq	$str.32, 8(%rax)
	movl	$16, %eax
	lock		xaddq	%rax, _heap_ptr_(%rip)
	movq	%rax, 128(%rsp)         # 8-byte Spill
	movq	$3, (%rax)
	movq	$str.33, 8(%rax)
	movl	$16, %eax
	lock		xaddq	%rax, _heap_ptr_(%rip)
	movq	%rax, 120(%rsp)         # 8-byte Spill
	movq	$3, (%rax)
	movq	$str.34, 8(%rax)
	movl	$16, %eax
	lock		xaddq	%rax, _heap_ptr_(%rip)
	movq	%rax, 112(%rsp)         # 8-byte Spill
	movq	$3, (%rax)
	movq	$str.35, 8(%rax)
	movl	$16, %eax
	lock		xaddq	%rax, _heap_ptr_(%rip)
	movq	%rax, 104(%rsp)         # 8-byte Spill
	movq	$3, (%rax)
	movq	$str.36, 8(%rax)
	movl	$16, %eax
	lock		xaddq	%rax, _heap_ptr_(%rip)
	movq	%rax, 96(%rsp)          # 8-byte Spill
	movq	$3, (%rax)
	movq	$str.37, 8(%rax)
	movl	$16, %eax
	lock		xaddq	%rax, _heap_ptr_(%rip)
	movq	%rax, 88(%rsp)          # 8-byte Spill
	movq	$3, (%rax)
	movq	$str.38, 8(%rax)
	movl	$16, %eax
	lock		xaddq	%rax, _heap_ptr_(%rip)
	movq	%rax, 80(%rsp)          # 8-byte Spill
	movq	$3, (%rax)
	movq	$str.39, 8(%rax)
	movl	$16, %eax
	lock		xaddq	%rax, _heap_ptr_(%rip)
	movq	%rax, 72(%rsp)          # 8-byte Spill
	movq	$3, (%rax)
	movq	$str.40, 8(%rax)
	movl	$16, %eax
	lock		xaddq	%rax, _heap_ptr_(%rip)
	movq	%rax, 64(%rsp)          # 8-byte Spill
	movq	$3, (%rax)
	movq	$str.41, 8(%rax)
	movl	$16, %eax
	lock		xaddq	%rax, _heap_ptr_(%rip)
	movq	%rax, 48(%rsp)          # 8-byte Spill
	movq	$3, (%rax)
	movq	$str.42, 8(%rax)
	movl	$16, %eax
	lock		xaddq	%rax, _heap_ptr_(%rip)
	movq	%rax, 40(%rsp)          # 8-byte Spill
	movq	$3, (%rax)
	movq	$str.43, 8(%rax)
	movl	$16, %eax
	lock		xaddq	%rax, _heap_ptr_(%rip)
	movq	%rax, 32(%rsp)          # 8-byte Spill
	movq	$3, (%rax)
	movq	$str.44, 8(%rax)
	movl	$16, %eax
	lock		xaddq	%rax, _heap_ptr_(%rip)
	movq	%rax, 24(%rsp)          # 8-byte Spill
	movq	$3, (%rax)
	movq	$str.45, 8(%rax)
	movl	$16, %eax
	lock		xaddq	%rax, _heap_ptr_(%rip)
	movq	%rax, 16(%rsp)          # 8-byte Spill
	movq	$3, (%rax)
	movq	$str.46, 8(%rax)
	movl	$16, %eax
	lock		xaddq	%rax, _heap_ptr_(%rip)
	movq	%rax, 8(%rsp)           # 8-byte Spill
	movq	$3, (%rax)
	movq	$str.47, 8(%rax)
	movl	$16, %ebx
	lock		xaddq	%rbx, _heap_ptr_(%rip)
	movq	$3, (%rbx)
	movq	$str.48, 8(%rbx)
	movl	$16, %r11d
	lock		xaddq	%r11, _heap_ptr_(%rip)
	movq	$3, (%r11)
	movq	$str.49, 8(%r11)
	movl	$16, %r10d
	lock		xaddq	%r10, _heap_ptr_(%rip)
	movq	$3, (%r10)
	movq	$str.50, 8(%r10)
	movl	$16, %r9d
	lock		xaddq	%r9, _heap_ptr_(%rip)
	movq	$3, (%r9)
	movq	$str.51, 8(%r9)
	movl	$16, %r8d
	lock		xaddq	%r8, _heap_ptr_(%rip)
	movq	$3, (%r8)
	movq	$str.52, 8(%r8)
	movl	$16, %edi
	lock		xaddq	%rdi, _heap_ptr_(%rip)
	movq	$3, (%rdi)
	movq	$str.53, 8(%rdi)
	movl	$16, %esi
	lock		xaddq	%rsi, _heap_ptr_(%rip)
	movq	$3, (%rsi)
	movq	$str.54, 8(%rsi)
	movl	$16, %r12d
	lock		xaddq	%r12, _heap_ptr_(%rip)
	movq	$3, (%r12)
	movq	$str.55, 8(%r12)
	movq	%rbp, 184(%rsp)         # 8-byte Spill
	movl	$16, %r14d
	lock		xaddq	%r14, _heap_ptr_(%rip)
	movq	$3, (%r14)
	movq	$str.56, 8(%r14)
	movq	%r15, %rbp
	movl	$16, %r15d
	lock		xaddq	%r15, _heap_ptr_(%rip)
	movq	$3, (%r15)
	movq	$str.57, 8(%r15)
	movl	$16, %ecx
	lock		xaddq	%rcx, _heap_ptr_(%rip)
	movq	$3, (%rcx)
	movq	$str.58, 8(%rcx)
	movl	$8, %edx
	lock		xaddq	%rdx, _heap_ptr_(%rip)
	movq	$9, (%rdx)
	movl	$24, %eax
	lock		xaddq	%rax, _heap_ptr_(%rip)
	movq	$8, (%rax)
	movq	%rcx, 8(%rax)
	movq	%rdx, 16(%rax)
	movl	$24, %ecx
	lock		xaddq	%rcx, _heap_ptr_(%rip)
	movq	$8, (%rcx)
	movq	%r15, 8(%rcx)
	movq	%rbp, %r15
	movq	%rax, 16(%rcx)
	movl	$24, %eax
	lock		xaddq	%rax, _heap_ptr_(%rip)
	movq	$8, (%rax)
	movq	%r14, 8(%rax)
	movq	184(%rsp), %rbp         # 8-byte Reload
	movq	%rcx, 16(%rax)
	movl	$24, %ecx
	lock		xaddq	%rcx, _heap_ptr_(%rip)
	movq	$8, (%rcx)
	movq	%r12, 8(%rcx)
	movq	%rax, 16(%rcx)
	movl	$24, %eax
	lock		xaddq	%rax, _heap_ptr_(%rip)
	movq	$8, (%rax)
	movq	%rsi, 8(%rax)
	movq	56(%rsp), %rsi          # 8-byte Reload
	movq	%rcx, 16(%rax)
	movl	$24, %ecx
	lock		xaddq	%rcx, _heap_ptr_(%rip)
	movq	$8, (%rcx)
	movq	%rdi, 8(%rcx)
	movq	%rax, 16(%rcx)
	movl	$24, %eax
	lock		xaddq	%rax, _heap_ptr_(%rip)
	movq	$8, (%rax)
	movq	%r8, 8(%rax)
	movq	%rcx, 16(%rax)
	movl	$24, %ecx
	lock		xaddq	%rcx, _heap_ptr_(%rip)
	movq	$8, (%rcx)
	movq	%r9, 8(%rcx)
	movq	%rax, 16(%rcx)
	movl	$24, %eax
	lock		xaddq	%rax, _heap_ptr_(%rip)
	movq	$8, (%rax)
	movq	%r10, 8(%rax)
	movq	%rcx, 16(%rax)
	movl	$24, %ecx
	lock		xaddq	%rcx, _heap_ptr_(%rip)
	movq	$8, (%rcx)
	movq	%r11, 8(%rcx)
	movq	%rax, 16(%rcx)
	movl	$24, %eax
	lock		xaddq	%rax, _heap_ptr_(%rip)
	movq	$8, (%rax)
	movq	%rbx, 8(%rax)
	movq	%rcx, 16(%rax)
	movl	$24, %ecx
	lock		xaddq	%rcx, _heap_ptr_(%rip)
	movq	$8, (%rcx)
	movq	8(%rsp), %rdx           # 8-byte Reload
	movq	%rdx, 8(%rcx)
	movq	%rax, 16(%rcx)
	movl	$24, %eax
	lock		xaddq	%rax, _heap_ptr_(%rip)
	movq	$8, (%rax)
	movq	16(%rsp), %rdx          # 8-byte Reload
	movq	%rdx, 8(%rax)
	movq	%rcx, 16(%rax)
	movl	$24, %ecx
	lock		xaddq	%rcx, _heap_ptr_(%rip)
	movq	$8, (%rcx)
	movq	24(%rsp), %rdx          # 8-byte Reload
	movq	%rdx, 8(%rcx)
	movq	%rax, 16(%rcx)
	movl	$24, %eax
	lock		xaddq	%rax, _heap_ptr_(%rip)
	movq	$8, (%rax)
	movq	32(%rsp), %rdx          # 8-byte Reload
	movq	%rdx, 8(%rax)
	movq	%rcx, 16(%rax)
	movl	$24, %ecx
	lock		xaddq	%rcx, _heap_ptr_(%rip)
	movq	$8, (%rcx)
	movq	40(%rsp), %rdx          # 8-byte Reload
	movq	%rdx, 8(%rcx)
	movq	%rax, 16(%rcx)
	movl	$24, %eax
	lock		xaddq	%rax, _heap_ptr_(%rip)
	movq	$8, (%rax)
	movq	48(%rsp), %rdx          # 8-byte Reload
	movq	%rdx, 8(%rax)
	movq	%rcx, 16(%rax)
	movl	$24, %ecx
	lock		xaddq	%rcx, _heap_ptr_(%rip)
	movq	$8, (%rcx)
	movq	64(%rsp), %rdx          # 8-byte Reload
	movq	%rdx, 8(%rcx)
	movq	%rax, 16(%rcx)
	movl	$24, %eax
	lock		xaddq	%rax, _heap_ptr_(%rip)
	movq	$8, (%rax)
	movq	72(%rsp), %rdx          # 8-byte Reload
	movq	%rdx, 8(%rax)
	movq	%rcx, 16(%rax)
	movl	$24, %ecx
	lock		xaddq	%rcx, _heap_ptr_(%rip)
	movq	$8, (%rcx)
	movq	80(%rsp), %rdx          # 8-byte Reload
	movq	%rdx, 8(%rcx)
	movq	%rax, 16(%rcx)
	movl	$24, %eax
	lock		xaddq	%rax, _heap_ptr_(%rip)
	movq	$8, (%rax)
	movq	88(%rsp), %rdx          # 8-byte Reload
	movq	%rdx, 8(%rax)
	movq	%rcx, 16(%rax)
	movl	$24, %ecx
	lock		xaddq	%rcx, _heap_ptr_(%rip)
	movq	$8, (%rcx)
	movq	96(%rsp), %rdx          # 8-byte Reload
	movq	%rdx, 8(%rcx)
	movq	%rax, 16(%rcx)
	movl	$24, %eax
	lock		xaddq	%rax, _heap_ptr_(%rip)
	movq	$8, (%rax)
	movq	104(%rsp), %rdx         # 8-byte Reload
	movq	%rdx, 8(%rax)
	movq	%rcx, 16(%rax)
	movl	$24, %ecx
	lock		xaddq	%rcx, _heap_ptr_(%rip)
	movq	$8, (%rcx)
	movq	112(%rsp), %rdx         # 8-byte Reload
	movq	%rdx, 8(%rcx)
	movq	%rax, 16(%rcx)
	movl	$24, %eax
	lock		xaddq	%rax, _heap_ptr_(%rip)
	movq	$8, (%rax)
	movq	120(%rsp), %rdx         # 8-byte Reload
	movq	%rdx, 8(%rax)
	movq	%rcx, 16(%rax)
	movl	$24, %ecx
	lock		xaddq	%rcx, _heap_ptr_(%rip)
	movq	$8, (%rcx)
	movq	128(%rsp), %rdx         # 8-byte Reload
	movq	%rdx, 8(%rcx)
	movq	%rax, 16(%rcx)
	movl	$24, %eax
	lock		xaddq	%rax, _heap_ptr_(%rip)
	movq	$8, (%rax)
	movq	136(%rsp), %rdx         # 8-byte Reload
	movq	%rdx, 8(%rax)
	movq	%rcx, 16(%rax)
	movl	$24, %ecx
	lock		xaddq	%rcx, _heap_ptr_(%rip)
	movq	$8, (%rcx)
	movq	144(%rsp), %rdx         # 8-byte Reload
	movq	%rdx, 8(%rcx)
	movq	%rax, 16(%rcx)
	movl	$24, %eax
	lock		xaddq	%rax, _heap_ptr_(%rip)
	movq	$8, (%rax)
	movq	152(%rsp), %rdx         # 8-byte Reload
	movq	%rdx, 8(%rax)
	movq	%rcx, 16(%rax)
	movl	$24, %ecx
	lock		xaddq	%rcx, _heap_ptr_(%rip)
	movq	$8, (%rcx)
	movq	160(%rsp), %rdx         # 8-byte Reload
	movq	%rdx, 8(%rcx)
	movq	%rax, 16(%rcx)
	movl	$24, %edx
	lock		xaddq	%rdx, _heap_ptr_(%rip)
	movq	$8, (%rdx)
	movq	168(%rsp), %rax         # 8-byte Reload
	movq	%rax, 8(%rdx)
	movq	%rcx, 16(%rdx)
	movl	$24, %eax
	lock		xaddq	%rax, _heap_ptr_(%rip)
	movq	$8, (%rax)
	movq	176(%rsp), %rcx         # 8-byte Reload
	movq	%rcx, 8(%rax)
	movq	%rdx, 16(%rax)
	jmp	.LBB15_40
.LBB15_39:                              # %block.default.14195.i.i
                                        #   in Loop: Header=BB15_40 Depth=1
	movl	$16, %ecx
	lock		xaddq	%rcx, _heap_ptr_(%rip)
	movq	$2, (%rcx)
	movq	$1, 8(%rcx)
	movq	8(%rsi), %rcx
	decq	%rcx
	movl	$16, %esi
	lock		xaddq	%rsi, _heap_ptr_(%rip)
	movq	$2, (%rsi)
	movq	%rcx, 8(%rsi)
	movl	$8, %ecx
	lock		xaddq	%rcx, _heap_ptr_(%rip)
	movq	$0, (%rcx)
.LBB15_40:                              # %tailrecurse.i.i
                                        # =>This Inner Loop Header: Depth=1
	movq	(%rax), %rcx
	cmpq	$9, %rcx
	je	.LBB15_43
# %bb.41:                               # %tailrecurse.i.i
                                        #   in Loop: Header=BB15_40 Depth=1
	cmpq	$8, %rcx
	jne	.LBB15_171
# %bb.42:                               # %"block.Cidr_Prelude.List.::.14178.i.i"
                                        #   in Loop: Header=BB15_40 Depth=1
	movq	8(%rax), %rcx
	movq	16(%rax), %rax
	movl	$8, %edx
	cmpq	$9, %rdx
	jne	.LBB15_44
	jmp	.LBB15_48
.LBB15_43:                              #   in Loop: Header=BB15_40 Depth=1
	movl	$9, %edx
                                        # implicit-def: $rcx
                                        # implicit-def: $rax
	cmpq	$9, %rdx
	je	.LBB15_48
.LBB15_44:                              # %block.exit.14186.i.i
                                        #   in Loop: Header=BB15_40 Depth=1
	cmpq	$8, %rdx
	jne	.LBB15_171
# %bb.45:                               # %"block.Cidr_Prelude.List.::.14189.i.i"
                                        #   in Loop: Header=BB15_40 Depth=1
	cmpq	$2, (%rsi)
	jne	.LBB15_171
# %bb.46:                               # %block.CGrInt.14194.i.i
                                        #   in Loop: Header=BB15_40 Depth=1
	cmpq	$0, 8(%rsi)
	jne	.LBB15_39
# %bb.47:                               # %block.int_0.14217.i.i
	movl	$36, %edx
	jmp	.LBB15_49
.LBB15_48:                              # %"idr_Prelude.Show.showLitChar:getAt:10.exit.i.loopexit"
	movl	$37, %edx
                                        # implicit-def: $rcx
.LBB15_49:                              # %"idr_Prelude.Show.showLitChar:getAt:10.exit.i"
	movl	$16, %eax
	lock		xaddq	%rax, _heap_ptr_(%rip)
	cmpq	$37, %rdx
	je	.LBB15_52
# %bb.50:                               # %"idr_Prelude.Show.showLitChar:getAt:10.exit.i"
	cmpq	$36, %rdx
	jne	.LBB15_171
# %bb.51:                               # %block.Cidr_Prelude.Maybe.Just.5276.i
	movq	$36, (%rax)
	movq	%rcx, 8(%rax)
	jmp	.LBB15_53
.LBB15_95:                              # %idr_Prelude.Show.showLitChar.exit
	cmpq	$49, %rax
	jne	.LBB15_171
# %bb.96:                               # %"block.Cidr_{U_Prelude.Show.protectEsc_1}.5415"
	movq	$49, (%rbx)
	movq	%rcx, 8(%rbx)
	movq	%rdx, 16(%rbx)
	jmp	.LBB15_109
.LBB15_97:                              # %"block.Cidr_{U_Prelude.Show.{showLitChar_26}_1}.5453"
	movq	$38, (%rbx)
	jmp	.LBB15_100
.LBB15_98:                              # %idr_Prelude.Show.showLitChar.exit
	cmpq	$40, %rax
	jne	.LBB15_171
# %bb.99:                               # %"block.Cidr_{U_Prelude.Show.{showLitChar_27}_1}.5459"
	movq	$40, (%rbx)
.LBB15_100:                             # %block.exit.5471
	movq	%rcx, 8(%rbx)
	jmp	.LBB15_109
.LBB15_101:                             # %"block.Cidr_{U_Prelude.Show.{showLitChar_19}_1}.5429"
	movq	$44, (%rbx)
	jmp	.LBB15_109
.LBB15_102:                             # %idr_Prelude.Show.showLitChar.exit
	cmpq	$46, %rax
	jne	.LBB15_171
# %bb.103:                              # %"block.Cidr_{U_Prelude.Show.{showLitChar_21}_1}.5437"
	movq	$46, (%rbx)
	jmp	.LBB15_109
.LBB15_104:                             # %"block.Cidr_{U_Prelude.Show.{showLitChar_16}_1}.5417"
	movq	$41, (%rbx)
	jmp	.LBB15_109
.LBB15_105:                             # %idr_Prelude.Show.showLitChar.exit
	cmpq	$43, %rax
	jne	.LBB15_171
# %bb.106:                              # %"block.Cidr_{U_Prelude.Show.{showLitChar_18}_1}.5425"
	movq	$43, (%rbx)
	jmp	.LBB15_109
.LBB15_107:                             # %idr_Prelude.Show.showLitChar.exit
	cmpq	$51, %rax
	jne	.LBB15_171
# %bb.108:                              # %"block.Cidr_{U_Prelude.Show.{showLitChar_25}_1}.5449"
	movq	$51, (%rbx)
.LBB15_109:                             # %block.exit.5471
	leaq	248(%rsp), %rdi
	movq	%r15, %rsi
	movq	%rbp, %rdx
	callq	.Lidr_Prelude.Show.showLitString
	movq	292(%rsp), %rdi
	movq	284(%rsp), %r8
	movq	276(%rsp), %rax
	movq	268(%rsp), %rcx
	movq	260(%rsp), %rbp
	movss	256(%rsp), %xmm0        # xmm0 = mem[0],zero,zero,zero
	movq	248(%rsp), %rsi
	movl	$52, %edx
	lock		xaddq	%rdx, _heap_ptr_(%rip)
	cmpq	$6, %rsi
	jle	.LBB15_114
# %bb.110:                              # %block.exit.5471
	cmpq	$10, %rsi
	jg	.LBB15_118
# %bb.111:                              # %block.exit.5471
	cmpq	$8, %rsi
	jg	.LBB15_124
# %bb.112:                              # %block.exit.5471
	cmpq	$7, %rsi
	jne	.LBB15_130
# %bb.113:                              # %block.Cidr_Prelude.Bool.True.5520
	movq	$7, (%rdx)
	jmp	.LBB15_137
.LBB15_114:                             # %block.exit.5471
	cmpq	$2, %rsi
	jle	.LBB15_121
# %bb.115:                              # %block.exit.5471
	cmpq	$4, %rsi
	jg	.LBB15_126
# %bb.116:                              # %block.exit.5471
	cmpq	$3, %rsi
	jne	.LBB15_132
# %bb.117:                              # %block.CGrString.5494
	movq	$3, (%rdx)
	movq	%rcx, 8(%rdx)
	jmp	.LBB15_137
.LBB15_118:                             # %block.exit.5471
	cmpq	$12, %rsi
	jg	.LBB15_128
# %bb.119:                              # %block.exit.5471
	cmpq	$11, %rsi
	jne	.LBB15_134
# %bb.120:                              # %"block.Cidr_{U_Main.{main_9}_1}.5546"
	movq	$11, (%rdx)
	movq	%rax, 8(%rdx)
	jmp	.LBB15_137
.LBB15_121:                             # %block.exit.5471
	testq	%rsi, %rsi
	je	.LBB15_139
# %bb.122:                              # %block.exit.5471
	cmpq	$1, %rsi
	jne	.LBB15_140
# %bb.123:                              # %block.CGrFloat.5482
	movq	$1, (%rdx)
	movss	%xmm0, 8(%rdx)
	jmp	.LBB15_137
.LBB15_124:                             # %block.exit.5471
	cmpq	$9, %rsi
	jne	.LBB15_142
# %bb.125:                              # %block.Cidr_Prelude.List.Nil.5532
	movq	$9, (%rdx)
	jmp	.LBB15_137
.LBB15_126:                             # %block.exit.5471
	cmpq	$5, %rsi
	jne	.LBB15_144
# %bb.127:                              # %"block.Cidr_Data.Vect.::.5508"
	movq	$5, (%rdx)
	jmp	.LBB15_136
.LBB15_128:                             # %block.exit.5471
	cmpq	$13, %rsi
	jne	.LBB15_146
# %bb.129:                              # %"block.Cidr_{U_Main.{printFmt_15}_1}.5560"
	movq	$13, (%rdx)
	jmp	.LBB15_136
.LBB15_130:                             # %block.exit.5471
	cmpq	$8, %rsi
	jne	.LBB15_171
# %bb.131:                              # %"block.Cidr_Prelude.List.::.5524"
	movq	$8, (%rdx)
	jmp	.LBB15_136
.LBB15_132:                             # %block.exit.5471
	cmpq	$4, %rsi
	jne	.LBB15_171
# %bb.133:                              # %block.Cidr_Builtins.MkPair.5500
	movq	$4, (%rdx)
	jmp	.LBB15_136
.LBB15_134:                             # %block.exit.5471
	cmpq	$12, %rsi
	jne	.LBB15_171
# %bb.135:                              # %"block.Cidr_{U_Main.{printFmt_14}_1}.5552"
	movq	$12, (%rdx)
.LBB15_136:                             # %block.exit.5574
	movq	%rax, 8(%rdx)
	movq	%r8, 16(%rdx)
.LBB15_137:                             # %block.exit.5574
	leaq	192(%rsp), %rdi
	movq	%rbx, %rsi
	callq	".Lidr_{APPLY_0}"
	movq	192(%rsp), %rax
	movss	200(%rsp), %xmm0        # xmm0 = mem[0],zero,zero,zero
	movq	204(%rsp), %rcx
	movq	212(%rsp), %rdx
	movq	220(%rsp), %rsi
	movq	228(%rsp), %rdi
	movq	236(%rsp), %rbp
	movq	%rbp, 44(%r13)
	movq	%rdi, 36(%r13)
	movq	%rsi, 28(%r13)
	movq	%rdx, 20(%r13)
	movq	%rcx, 12(%r13)
	movss	%xmm0, 8(%r13)
	movq	%rax, (%r13)
.LBB15_138:                             # %block.exit.5700
	movq	%r13, %rax
	addq	$360, %rsp              # imm = 0x168
	.cfi_def_cfa_offset 56
	popq	%rbx
	.cfi_def_cfa_offset 48
	popq	%r12
	.cfi_def_cfa_offset 40
	popq	%r13
	.cfi_def_cfa_offset 32
	popq	%r14
	.cfi_def_cfa_offset 24
	popq	%r15
	.cfi_def_cfa_offset 16
	popq	%rbp
	.cfi_def_cfa_offset 8
	retq
.LBB15_139:                             # %block.CErased.5478
	.cfi_def_cfa_offset 416
	movq	$0, (%rdx)
	jmp	.LBB15_137
.LBB15_140:                             # %block.exit.5471
	cmpq	$2, %rsi
	jne	.LBB15_171
# %bb.141:                              # %block.CGrInt.5488
	movq	$2, (%rdx)
	movq	%rbp, 8(%rdx)
	jmp	.LBB15_137
.LBB15_142:                             # %block.exit.5471
	cmpq	$10, %rsi
	jne	.LBB15_171
# %bb.143:                              # %"block.Cidr_{U_Main.{adder_0}_1}.5536"
	movq	$10, (%rdx)
	movq	%rax, 8(%rdx)
	movq	%r8, 16(%rdx)
	movq	%rdi, 24(%rdx)
	jmp	.LBB15_137
.LBB15_144:                             # %block.exit.5471
	cmpq	$6, %rsi
	jne	.LBB15_171
# %bb.145:                              # %block.Cidr_Prelude.Bool.False.5516
	movq	$6, (%rdx)
	jmp	.LBB15_137
.LBB15_146:                             # %block.exit.5471
	cmpq	$14, %rsi
	jne	.LBB15_171
# %bb.147:                              # %"block.Cidr_{U_Prelude.Show.{Data.Vect.@Prelude.Show.Show$Vect len elem:!show:0_lam_28}_1}.5568"
	movq	$14, (%rdx)
	movq	%rax, 8(%rdx)
	jmp	.LBB15_137
.LBB15_52:                              # %block.Cidr_Prelude.Maybe.Nothing.5278.i
	movq	$37, (%rax)
.LBB15_53:                              # %block.exit.5282.i
	movq	(%rax), %rcx
	cmpq	$37, %rcx
	je	.LBB15_58
# %bb.54:                               # %block.exit.5282.i
	cmpq	$36, %rcx
	jne	.LBB15_171
# %bb.55:                               # %block.Cidr_Prelude.Maybe.Just.5284.i
	movq	(%rax), %rdx
	movq	8(%rax), %rcx
	cmpq	$37, %rdx
	je	.LBB15_59
.LBB15_56:                              # %block.exit.5292.i
	cmpq	$36, %rdx
	jne	.LBB15_171
# %bb.57:                               # %block.Cidr_Prelude.Maybe.Just.5295.i
	movl	$38, %eax
	jmp	.LBB15_77
.LBB15_58:                              # %block.Cidr_Prelude.Maybe.Nothing.5287.i
	movq	(%rax), %rdx
                                        # implicit-def: $rcx
	cmpq	$37, %rdx
	jne	.LBB15_56
.LBB15_59:                              # %block.Cidr_Prelude.Maybe.Nothing.5297.i
	movl	$16, %r14d
	movl	$16, %ebx
	lock		xaddq	%rbx, _heap_ptr_(%rip)
	movq	$2, (%rbx)
	movq	$127, 8(%rbx)
	movq	(%rsp), %rdi            # 8-byte Reload
	movq	%rbx, %rsi
	callq	.Lidris_int_eq
	lock		xaddq	%r14, _heap_ptr_(%rip)
	movq	%rax, (%r14)
	movq	%rdx, 8(%r14)
	cmpq	$2, %rax
	jne	.LBB15_171
# %bb.60:                               # %block.CGrInt.13449.i.i
	testq	%rdx, %rdx
	je	.LBB15_72
# %bb.61:
	movl	$18, %eax
	jmp	.LBB15_74
.LBB15_62:                              # %block.int_34.5576
	cmpq	$2, %rdx
	jle	.LBB15_69
# %bb.63:                               # %block.int_34.5576
	cmpq	$4, %rdx
	jg	.LBB15_150
# %bb.64:                               # %block.int_34.5576
	cmpq	$3, %rdx
	jne	.LBB15_156
# %bb.65:                               # %block.CGrString.5606
	movq	$3, (%rsi)
	movq	%rcx, 8(%rsi)
	jmp	.LBB15_161
.LBB15_66:                              # %block.int_34.5576
	cmpq	$12, %rdx
	jg	.LBB15_152
# %bb.67:                               # %block.int_34.5576
	cmpq	$11, %rdx
	jne	.LBB15_158
# %bb.68:                               # %"block.Cidr_{U_Main.{main_9}_1}.5658"
	movq	$11, (%rsi)
	movq	%rax, 8(%rsi)
	jmp	.LBB15_161
.LBB15_69:                              # %block.int_34.5576
	testq	%rdx, %rdx
	je	.LBB15_162
# %bb.70:                               # %block.int_34.5576
	cmpq	$1, %rdx
	jne	.LBB15_163
# %bb.71:                               # %block.CGrFloat.5594
	movq	$1, (%rsi)
	movss	%xmm0, 8(%rsi)
	jmp	.LBB15_161
.LBB15_72:                              # %block.int_0.13451.i.i
	movq	(%rsp), %rdi            # 8-byte Reload
	movq	%rbx, %rsi
	callq	.Lidris_int_lt
	movl	$16, %ecx
	lock		xaddq	%rcx, _heap_ptr_(%rip)
	movq	%rax, (%rcx)
	movq	%rdx, 8(%rcx)
	cmpq	$2, %rax
	jne	.LBB15_171
# %bb.73:                               # %block.CGrInt.13463.i.i
	cmpq	$1, %rdx
	movl	$20, %eax
	sbbq	$0, %rax
.LBB15_74:                              # %"idr_Prelude.Interfaces.Prelude.Interfaces.@Prelude.Interfaces.Ord$Char:!compare:0.exit.i"
	movl	$8, %ecx
	lock		xaddq	%rcx, _heap_ptr_(%rip)
	leaq	-18(%rax), %rdx
	cmpq	$2, %rdx
	ja	.LBB15_171
# %bb.75:                               # %block.exit.5317.i
	movq	%rax, (%rcx)
	ja	.LBB15_171
# %bb.76:                               # %block.exit.5328.i
	xorl	%eax, %eax
	cmpq	$19, (%rcx)
	sete	%al
	addq	$39, %rax
	movq	(%rsp), %rcx            # 8-byte Reload
	jmp	.LBB15_77
.LBB15_148:                             # %block.int_34.5576
	cmpq	$9, %rdx
	jne	.LBB15_165
# %bb.149:                              # %block.Cidr_Prelude.List.Nil.5644
	movq	$9, (%rsi)
	jmp	.LBB15_161
.LBB15_150:                             # %block.int_34.5576
	cmpq	$5, %rdx
	jne	.LBB15_167
# %bb.151:                              # %"block.Cidr_Data.Vect.::.5620"
	movq	$5, (%rsi)
	jmp	.LBB15_160
.LBB15_152:                             # %block.int_34.5576
	cmpq	$13, %rdx
	jne	.LBB15_169
# %bb.153:                              # %"block.Cidr_{U_Main.{printFmt_15}_1}.5672"
	movq	$13, (%rsi)
	jmp	.LBB15_160
.LBB15_154:                             # %block.int_34.5576
	cmpq	$8, %rdx
	jne	.LBB15_171
# %bb.155:                              # %"block.Cidr_Prelude.List.::.5636"
	movq	$8, (%rsi)
	jmp	.LBB15_160
.LBB15_156:                             # %block.int_34.5576
	cmpq	$4, %rdx
	jne	.LBB15_171
# %bb.157:                              # %block.Cidr_Builtins.MkPair.5612
	movq	$4, (%rsi)
	jmp	.LBB15_160
.LBB15_158:                             # %block.int_34.5576
	cmpq	$12, %rdx
	jne	.LBB15_171
# %bb.159:                              # %"block.Cidr_{U_Main.{printFmt_14}_1}.5664"
	movq	$12, (%rsi)
.LBB15_160:                             # %block.exit.5686
	movq	%rax, 8(%rsi)
	movq	%r8, 16(%rsi)
.LBB15_161:                             # %block.exit.5686
	movq	%rbx, %rdi
	callq	.Lidris_str_concat
	jmp	.LBB15_13
.LBB15_162:                             # %block.CErased.5590
	movq	$0, (%rsi)
	jmp	.LBB15_161
.LBB15_163:                             # %block.int_34.5576
	cmpq	$2, %rdx
	jne	.LBB15_171
# %bb.164:                              # %block.CGrInt.5600
	movq	$2, (%rsi)
	movq	%rbp, 8(%rsi)
	jmp	.LBB15_161
.LBB15_165:                             # %block.int_34.5576
	cmpq	$10, %rdx
	jne	.LBB15_171
# %bb.166:                              # %"block.Cidr_{U_Main.{adder_0}_1}.5648"
	movq	$10, (%rsi)
	movq	%rax, 8(%rsi)
	movq	%r8, 16(%rsi)
	movq	%rdi, 24(%rsi)
	jmp	.LBB15_161
.LBB15_167:                             # %block.int_34.5576
	cmpq	$6, %rdx
	jne	.LBB15_171
# %bb.168:                              # %block.Cidr_Prelude.Bool.False.5628
	movq	$6, (%rsi)
	jmp	.LBB15_161
.LBB15_169:                             # %block.int_34.5576
	cmpq	$14, %rdx
	jne	.LBB15_171
# %bb.170:                              # %"block.Cidr_{U_Prelude.Show.{Data.Vect.@Prelude.Show.Show$Vect len elem:!show:0_lam_28}_1}.5680"
	movq	$14, (%rsi)
	movq	%rax, 8(%rsi)
	jmp	.LBB15_161
.LBB15_171:                             # %error_block.i28.i
	movl	$666, %edi              # imm = 0x29A
	callq	_prim_int_print
.Lfunc_end15:
	.size	.Lidr_Prelude.Show.showLitString, .Lfunc_end15-.Lidr_Prelude.Show.showLitString
	.cfi_endproc
                                        # -- End function
	.p2align	4, 0x90         # -- Begin function idr_Main.toFormat
	.type	.Lidr_Main.toFormat,@function
.Lidr_Main.toFormat:                    # @idr_Main.toFormat
	.cfi_startproc
# %bb.0:                                # %idr_Main.toFormat.entry
	pushq	%r15
	.cfi_def_cfa_offset 16
	pushq	%r14
	.cfi_def_cfa_offset 24
	pushq	%r12
	.cfi_def_cfa_offset 32
	pushq	%rbx
	.cfi_def_cfa_offset 40
	pushq	%rax
	.cfi_def_cfa_offset 48
	.cfi_offset %rbx, -40
	.cfi_offset %r12, -32
	.cfi_offset %r14, -24
	.cfi_offset %r15, -16
	movq	(%rdi), %rax
	cmpq	$9, %rax
	je	.LBB16_14
# %bb.1:                                # %idr_Main.toFormat.entry
	cmpq	$8, %rax
	jne	.LBB16_13
# %bb.2:                                # %"block.Cidr_Prelude.List.::.5707"
	movq	8(%rdi), %r12
	movq	16(%rdi), %r14
	movl	$8, %eax
	cmpq	$9, %rax
	je	.LBB16_15
.LBB16_3:                               # %block.exit.5715
	cmpq	$8, %rax
	jne	.LBB16_13
# %bb.4:                                # %"block.Cidr_Prelude.List.::.5718"
	cmpq	$2, (%r12)
	jne	.LBB16_13
# %bb.5:                                # %block.CGrInt.5723
	cmpq	$37, 8(%r12)
	jne	.LBB16_18
# %bb.6:                                # %block.int_37.5830
	movq	(%r14), %rax
	cmpq	$9, %rax
	je	.LBB16_23
# %bb.7:                                # %block.int_37.5830
	cmpq	$8, %rax
	jne	.LBB16_13
# %bb.8:                                # %"block.Cidr_Prelude.List.::.5832"
	movq	8(%r14), %rax
	movq	16(%r14), %rdi
	movl	$8, %ecx
	cmpq	$8, %rcx
	je	.LBB16_24
	jmp	.LBB16_9
.LBB16_14:
	movl	$9, %eax
                                        # implicit-def: $r12
                                        # implicit-def: $r14
	cmpq	$9, %rax
	jne	.LBB16_3
.LBB16_15:
	movl	$30, %eax
                                        # implicit-def: $r15
.LBB16_16:                              # %block.exit.5992
                                        # implicit-def: $rbx
.LBB16_17:                              # %block.exit.5992
	movq	%r15, %rdx
	movq	%rbx, %rcx
	addq	$8, %rsp
	.cfi_def_cfa_offset 40
	popq	%rbx
	.cfi_def_cfa_offset 32
	popq	%r12
	.cfi_def_cfa_offset 24
	popq	%r14
	.cfi_def_cfa_offset 16
	popq	%r15
	.cfi_def_cfa_offset 8
	retq
.LBB16_18:                              # %block.default.5724
	.cfi_def_cfa_offset 48
	movq	%r14, %rdi
	callq	.Lidr_Main.toFormat
	movl	$24, %edi
	lock		xaddq	%rdi, _heap_ptr_(%rip)
	cmpq	$31, %rax
	jg	.LBB16_21
# %bb.19:                               # %block.default.5724
	cmpq	$30, %rax
	jne	.LBB16_32
# %bb.20:                               # %block.Cidr_Main.End.5731
	movq	$30, (%rdi)
	jmp	.LBB16_37
.LBB16_21:                              # %block.default.5724
	cmpq	$32, %rax
	jne	.LBB16_34
# %bb.22:                               # %block.Cidr_Main.Number.5737
	movq	$32, (%rdi)
	jmp	.LBB16_36
.LBB16_23:
	movl	$9, %ecx
                                        # implicit-def: $rax
                                        # implicit-def: $rdi
	cmpq	$8, %rcx
	jne	.LBB16_9
.LBB16_24:                              # %"block.Cidr_Prelude.List.::.5878"
	cmpq	$2, (%rax)
	jne	.LBB16_13
# %bb.25:                               # %block.CGrInt.5883
	movq	8(%rax), %rax
	cmpq	$100, %rax
	je	.LBB16_51
# %bb.26:                               # %block.CGrInt.5883
	cmpq	$115, %rax
	jne	.LBB16_9
# %bb.27:                               # %block.int_115.5946
	callq	.Lidr_Main.toFormat
	movl	$24, %r15d
	lock		xaddq	%r15, _heap_ptr_(%rip)
	cmpq	$31, %rax
	jg	.LBB16_56
# %bb.28:                               # %block.int_115.5946
	cmpq	$30, %rax
	jne	.LBB16_60
# %bb.29:                               # %block.Cidr_Main.End.5953
	movq	$30, (%r15)
	jmp	.LBB16_67
.LBB16_9:                               # %block.default.5843
	movl	$16, %r15d
	lock		xaddq	%r15, _heap_ptr_(%rip)
	movq	$3, (%r15)
	movq	$str.13, 8(%r15)
	jmp	.LBB16_10
.LBB16_32:                              # %block.default.5724
	cmpq	$31, %rax
	jne	.LBB16_13
# %bb.33:                               # %block.Cidr_Main.Lit.5735
	movq	$31, (%rdi)
	movq	%rdx, 8(%rdi)
	movq	%rcx, 16(%rdi)
	jmp	.LBB16_37
.LBB16_34:                              # %block.default.5724
	cmpq	$33, %rax
	jne	.LBB16_13
# %bb.35:                               # %block.Cidr_Main.Str.5743
	movq	$33, (%rdi)
.LBB16_36:                              # %block.exit.5749
	movq	%rdx, 8(%rdi)
.LBB16_37:                              # %block.exit.5749
	movq	(%rdi), %rax
	cmpq	$31, %rax
	jg	.LBB16_40
# %bb.38:                               # %block.exit.5749
	cmpq	$30, %rax
	jne	.LBB16_45
# %bb.39:                               # %block.Cidr_Main.End.5751
	movq	(%rdi), %rax
                                        # implicit-def: $rsi
                                        # implicit-def: $rbx
	cmpq	$31, %rax
	jne	.LBB16_47
	jmp	.LBB16_44
.LBB16_40:                              # %block.exit.5749
	cmpq	$32, %rax
	je	.LBB16_42
# %bb.41:                               # %block.exit.5749
	cmpq	$33, %rax
	jne	.LBB16_13
.LBB16_42:                              # %block.Cidr_Main.Str.5766
	movq	(%rdi), %rax
	movq	8(%rdi), %rsi
                                        # implicit-def: $rbx
	cmpq	$31, %rax
	jne	.LBB16_47
.LBB16_44:                              # %block.Cidr_Main.Lit.5818
	movq	8(%r12), %rdi
	callq	.Lidris_str_cons
	movl	$16, %r15d
	lock		xaddq	%r15, _heap_ptr_(%rip)
	movq	%rax, (%r15)
	movq	%rdx, 8(%r15)
	movl	$31, %eax
	jmp	.LBB16_17
.LBB16_45:                              # %block.exit.5749
	cmpq	$31, %rax
	jne	.LBB16_13
# %bb.46:                               # %block.Cidr_Main.Lit.5756
	movq	(%rdi), %rax
	movq	8(%rdi), %rsi
	movq	16(%rdi), %rbx
	cmpq	$31, %rax
	je	.LBB16_44
.LBB16_47:                              # %block.default.5776
	movl	$16, %r15d
	movl	$16, %esi
	lock		xaddq	%rsi, _heap_ptr_(%rip)
	movq	$3, (%rsi)
	movq	$str.3, 8(%rsi)
	movq	8(%r12), %rdi
	callq	.Lidris_str_cons
	lock		xaddq	%r15, _heap_ptr_(%rip)
	movq	%rax, (%r15)
	movq	%rdx, 8(%r15)
.LBB16_10:                              # %block.default.5843
	movq	%r14, %rdi
	callq	.Lidr_Main.toFormat
	movl	$24, %ebx
	lock		xaddq	%rbx, _heap_ptr_(%rip)
	cmpq	$31, %rax
	jg	.LBB16_30
# %bb.11:                               # %block.default.5843
	cmpq	$30, %rax
	jne	.LBB16_12
# %bb.71:                               # %block.Cidr_Main.End.5797
	movq	$30, (%rbx)
	movl	$31, %eax
	jmp	.LBB16_17
.LBB16_30:                              # %block.default.5843
	cmpq	$32, %rax
	jne	.LBB16_48
# %bb.31:                               # %block.Cidr_Main.Number.5863
	movq	$32, (%rbx)
	jmp	.LBB16_50
.LBB16_12:                              # %block.default.5843
	cmpq	$31, %rax
	jne	.LBB16_13
# %bb.55:                               # %block.Cidr_Main.Lit.5801
	movq	$31, (%rbx)
	movq	%rdx, 8(%rbx)
	movq	%rcx, 16(%rbx)
	movl	$31, %eax
	jmp	.LBB16_17
.LBB16_48:                              # %block.default.5843
	cmpq	$33, %rax
	jne	.LBB16_13
# %bb.49:                               # %block.Cidr_Main.Str.5809
	movq	$33, (%rbx)
.LBB16_50:                              # %block.exit.5815
	movq	%rdx, 8(%rbx)
	movl	$31, %eax
	jmp	.LBB16_17
.LBB16_51:                              # %block.int_100.5919
	callq	.Lidr_Main.toFormat
	movl	$24, %r15d
	lock		xaddq	%r15, _heap_ptr_(%rip)
	cmpq	$31, %rax
	jg	.LBB16_58
# %bb.52:                               # %block.int_100.5919
	cmpq	$30, %rax
	jne	.LBB16_62
# %bb.53:                               # %block.Cidr_Main.End.5926
	movq	$30, (%r15)
	movl	$32, %eax
	jmp	.LBB16_16
.LBB16_56:                              # %block.int_115.5946
	cmpq	$32, %rax
	jne	.LBB16_64
# %bb.57:                               # %block.Cidr_Main.Number.5959
	movq	$32, (%r15)
	jmp	.LBB16_66
.LBB16_58:                              # %block.int_100.5919
	cmpq	$32, %rax
	jne	.LBB16_68
# %bb.59:                               # %block.Cidr_Main.Number.5932
	movq	$32, (%r15)
	jmp	.LBB16_70
.LBB16_60:                              # %block.int_115.5946
	cmpq	$31, %rax
	jne	.LBB16_13
# %bb.61:                               # %block.Cidr_Main.Lit.5957
	movq	$31, (%r15)
	movq	%rdx, 8(%r15)
	movq	%rcx, 16(%r15)
	jmp	.LBB16_67
.LBB16_62:                              # %block.int_100.5919
	cmpq	$31, %rax
	jne	.LBB16_13
# %bb.63:                               # %block.Cidr_Main.Lit.5930
	movq	$31, (%r15)
	movq	%rdx, 8(%r15)
	movq	%rcx, 16(%r15)
	movl	$32, %eax
	jmp	.LBB16_16
.LBB16_64:                              # %block.int_115.5946
	cmpq	$33, %rax
	jne	.LBB16_13
# %bb.65:                               # %block.Cidr_Main.Str.5965
	movq	$33, (%r15)
.LBB16_66:                              # %block.exit.5971
	movq	%rdx, 8(%r15)
.LBB16_67:                              # %block.exit.5971
	movl	$33, %eax
	jmp	.LBB16_16
.LBB16_68:                              # %block.int_100.5919
	cmpq	$33, %rax
	jne	.LBB16_13
# %bb.69:                               # %block.Cidr_Main.Str.5938
	movq	$33, (%r15)
.LBB16_70:                              # %block.exit.5944
	movq	%rdx, 8(%r15)
	movl	$32, %eax
	jmp	.LBB16_16
.LBB16_13:                              # %error_block
	movl	$666, %edi              # imm = 0x29A
	callq	_prim_int_print
.Lfunc_end16:
	.size	.Lidr_Main.toFormat, .Lfunc_end16-.Lidr_Main.toFormat
	.cfi_endproc
                                        # -- End function
	.p2align	4, 0x90         # -- Begin function idr_Prelude.Strings.trim
	.type	.Lidr_Prelude.Strings.trim,@function
.Lidr_Prelude.Strings.trim:             # @idr_Prelude.Strings.trim
	.cfi_startproc
# %bb.0:                                # %idr_Prelude.Strings.trim.entry
	pushq	%r15
	.cfi_def_cfa_offset 16
	pushq	%r14
	.cfi_def_cfa_offset 24
	pushq	%r12
	.cfi_def_cfa_offset 32
	pushq	%rbx
	.cfi_def_cfa_offset 40
	pushq	%rax
	.cfi_def_cfa_offset 48
	.cfi_offset %rbx, -40
	.cfi_offset %r12, -32
	.cfi_offset %r14, -24
	.cfi_offset %r15, -16
	movq	%rdi, %r15
	movq	8(%rdi), %rdi
	callq	_prim_string_reverse
	movl	$16, %ebx
	movl	$16, %edi
	lock		xaddq	%rdi, _heap_ptr_(%rip)
	movq	$3, (%rdi)
	movq	%rax, 8(%rdi)
	movl	$16, %esi
	lock		xaddq	%rsi, _heap_ptr_(%rip)
	movq	$3, (%rsi)
	movq	$str.3, 8(%rsi)
	callq	.Lidris_str_eq
	lock		xaddq	%rbx, _heap_ptr_(%rip)
	movq	%rax, (%rbx)
	movq	%rdx, 8(%rbx)
	cmpq	$2, %rax
	jne	.LBB17_540
# %bb.1:                                # %block.CGrInt.6201
	xorl	%ecx, %ecx
	testq	%rdx, %rdx
	sete	%dl
	movl	$8, %eax
	lock		xaddq	%rax, _heap_ptr_(%rip)
	xorl	%esi, %esi
	testb	%sil, %sil
	jne	.LBB17_540
# %bb.2:                                # %block.exit.6217
	movb	%dl, %cl
	orq	$6, %rcx
	movq	%rcx, (%rax)
	movl	$8, %ecx
	lock		xaddq	%rcx, _heap_ptr_(%rip)
	movq	$7, (%rcx)
	xorl	%ecx, %ecx
	testb	%cl, %cl
	jne	.LBB17_540
# %bb.3:                                # %block.Cidr_Prelude.Bool.True.13421.i
	movq	(%rax), %rax
	cmpq	$6, %rax
	je	.LBB17_4
# %bb.5:                                # %block.Cidr_Prelude.Bool.True.13421.i
	cmpq	$7, %rax
	jne	.LBB17_540
# %bb.6:                                # %block.Cidr_Prelude.Bool.True.13426.i
	movl	$7, %eax
	cmpq	$6, %rax
	je	.LBB17_8
.LBB17_9:                               # %block.exit.13429.i
	cmpq	$7, %rax
	jne	.LBB17_540
# %bb.10:                               # %block.Cidr_Prelude.Bool.True.13433.i
	movl	$27, %eax
	jmp	.LBB17_11
.LBB17_4:
	movl	$6, %eax
	cmpq	$6, %rax
	jne	.LBB17_9
.LBB17_8:
	movl	$26, %eax
.LBB17_11:                              # %"idr_Decidable.Equality.Decidable.Equality.@Decidable.Equality.DecEq$Bool:!decEq:0.exit"
	addq	$8, %r15
	movl	$8, %ecx
	lock		xaddq	%rcx, _heap_ptr_(%rip)
	movq	%rax, %rdx
	andq	$-2, %rdx
	cmpq	$26, %rdx
	jne	.LBB17_540
# %bb.12:                               # %block.exit.6234
	movq	%rax, (%rcx)
	jne	.LBB17_540
# %bb.13:                               # %block.exit.6242
	movq	(%rcx), %rax
	cmpq	$26, %rax
	je	.LBB17_14
# %bb.15:                               # %block.exit.6242
	cmpq	$27, %rax
	jne	.LBB17_540
# %bb.16:                               # %block.Cidr_Prelude.Basics.Yes.6247
	movq	(%r15), %rdi
	callq	_prim_string_reverse
	movl	$16, %ebx
	movl	$16, %edi
	lock		xaddq	%rdi, _heap_ptr_(%rip)
	movq	$3, (%rdi)
	movq	%rax, 8(%rdi)
	callq	.Lidris_str_head
	lock		xaddq	%rbx, _heap_ptr_(%rip)
	movq	%rax, (%rbx)
	movq	%rdx, 8(%rbx)
	movq	%rbx, %rdi
	callq	.Lidr_Prelude.Chars.isSpace
	movl	$8, %ecx
	lock		xaddq	%rcx, _heap_ptr_(%rip)
	movq	%rax, %rdx
	andq	$-2, %rdx
	cmpq	$6, %rdx
	jne	.LBB17_540
# %bb.17:                               # %block.exit.6272
	movq	%rax, (%rcx)
	jne	.LBB17_540
# %bb.18:                               # %block.exit.6280
	movq	(%rcx), %rax
	cmpq	$7, %rax
	je	.LBB17_21
# %bb.19:                               # %block.exit.6280
	cmpq	$6, %rax
	jne	.LBB17_540
# %bb.20:                               # %block.Cidr_Prelude.Bool.False.6283
	movq	(%r15), %rdi
	callq	_prim_string_reverse
	movl	$16, %r14d
	movl	$16, %edi
	lock		xaddq	%rdi, _heap_ptr_(%rip)
	movq	$3, (%rdi)
	movq	%rax, 8(%rdi)
	callq	.Lidris_str_head
	movl	$16, %ebx
	lock		xaddq	%rbx, _heap_ptr_(%rip)
	movq	%rax, (%rbx)
	movq	%rdx, 8(%rbx)
	movq	(%r15), %rdi
	callq	_prim_string_reverse
	movl	$16, %edi
	lock		xaddq	%rdi, _heap_ptr_(%rip)
	movq	$3, (%rdi)
	movq	%rax, 8(%rdi)
	jmp	.LBB17_63
.LBB17_21:                              # %block.Cidr_Prelude.Bool.True.6313
	movq	(%r15), %rdi
	callq	_prim_string_reverse
	movl	$16, %ebx
	movl	$16, %edi
	lock		xaddq	%rdi, _heap_ptr_(%rip)
	movq	$3, (%rdi)
	movq	%rax, 8(%rdi)
	callq	.Lidris_str_tail
	movl	$16, %edi
	lock		xaddq	%rdi, _heap_ptr_(%rip)
	movq	%rax, (%rdi)
	movq	%rdx, 8(%rdi)
	movl	$16, %esi
	lock		xaddq	%rsi, _heap_ptr_(%rip)
	movq	$3, (%rsi)
	movq	$str.3, 8(%rsi)
	callq	.Lidris_str_eq
	lock		xaddq	%rbx, _heap_ptr_(%rip)
	movq	%rax, (%rbx)
	movq	%rdx, 8(%rbx)
	cmpq	$2, %rax
	jne	.LBB17_540
# %bb.22:                               # %block.CGrInt.6346
	xorl	%ecx, %ecx
	testq	%rdx, %rdx
	sete	%dl
	movl	$8, %eax
	lock		xaddq	%rax, _heap_ptr_(%rip)
	xorl	%esi, %esi
	testb	%sil, %sil
	jne	.LBB17_540
# %bb.23:                               # %block.exit.6362
	movb	%dl, %cl
	orq	$6, %rcx
	movq	%rcx, (%rax)
	movl	$8, %ecx
	lock		xaddq	%rcx, _heap_ptr_(%rip)
	movq	$7, (%rcx)
	xorl	%ecx, %ecx
	testb	%cl, %cl
	jne	.LBB17_540
# %bb.24:                               # %block.Cidr_Prelude.Bool.True.13421.i850
	movq	(%rax), %rax
	cmpq	$6, %rax
	je	.LBB17_25
# %bb.26:                               # %block.Cidr_Prelude.Bool.True.13421.i850
	cmpq	$7, %rax
	jne	.LBB17_540
# %bb.27:                               # %block.Cidr_Prelude.Bool.True.13426.i851
	movl	$7, %eax
	cmpq	$6, %rax
	je	.LBB17_29
.LBB17_30:                              # %block.exit.13429.i854
	cmpq	$7, %rax
	jne	.LBB17_540
# %bb.31:                               # %block.Cidr_Prelude.Bool.True.13433.i855
	movl	$27, %eax
	jmp	.LBB17_32
.LBB17_25:
	movl	$6, %eax
	cmpq	$6, %rax
	jne	.LBB17_30
.LBB17_29:
	movl	$26, %eax
.LBB17_32:                              # %"idr_Decidable.Equality.Decidable.Equality.@Decidable.Equality.DecEq$Bool:!decEq:0.exit859"
	movl	$8, %ecx
	lock		xaddq	%rcx, _heap_ptr_(%rip)
	movq	%rax, %rdx
	andq	$-2, %rdx
	cmpq	$26, %rdx
	jne	.LBB17_540
# %bb.33:                               # %block.exit.6379
	movq	%rax, (%rcx)
	jne	.LBB17_540
# %bb.34:                               # %block.exit.6387
	movq	(%rcx), %rax
	cmpq	$26, %rax
	je	.LBB17_14
# %bb.35:                               # %block.exit.6387
	cmpq	$27, %rax
	jne	.LBB17_540
# %bb.36:                               # %block.Cidr_Prelude.Basics.Yes.6392
	movq	(%r15), %rdi
	callq	_prim_string_reverse
	movl	$16, %ebx
	movl	$16, %edi
	lock		xaddq	%rdi, _heap_ptr_(%rip)
	movq	$3, (%rdi)
	movq	%rax, 8(%rdi)
	callq	.Lidris_str_tail
	movl	$16, %edi
	lock		xaddq	%rdi, _heap_ptr_(%rip)
	movq	%rax, (%rdi)
	movq	%rdx, 8(%rdi)
	callq	.Lidris_str_head
	lock		xaddq	%rbx, _heap_ptr_(%rip)
	movq	%rax, (%rbx)
	movq	%rdx, 8(%rbx)
	movq	%rbx, %rdi
	callq	.Lidr_Prelude.Chars.isSpace
	movl	$8, %ecx
	lock		xaddq	%rcx, _heap_ptr_(%rip)
	movq	%rax, %rdx
	andq	$-2, %rdx
	cmpq	$6, %rdx
	jne	.LBB17_540
# %bb.37:                               # %block.exit.6424
	movq	%rax, (%rcx)
	jne	.LBB17_540
# %bb.38:                               # %block.exit.6432
	movq	(%rcx), %rax
	cmpq	$7, %rax
	je	.LBB17_41
# %bb.39:                               # %block.exit.6432
	cmpq	$6, %rax
	jne	.LBB17_540
# %bb.40:                               # %block.Cidr_Prelude.Bool.False.6435
	movq	(%r15), %rdi
	callq	_prim_string_reverse
	movl	$16, %r14d
	movl	$16, %edi
	lock		xaddq	%rdi, _heap_ptr_(%rip)
	movq	$3, (%rdi)
	movq	%rax, 8(%rdi)
	callq	.Lidris_str_tail
	movl	$16, %edi
	lock		xaddq	%rdi, _heap_ptr_(%rip)
	movq	%rax, (%rdi)
	movq	%rdx, 8(%rdi)
	callq	.Lidris_str_head
	movl	$16, %ebx
	lock		xaddq	%rbx, _heap_ptr_(%rip)
	movq	%rax, (%rbx)
	movq	%rdx, 8(%rbx)
	movq	(%r15), %rdi
	callq	_prim_string_reverse
	movl	$16, %edi
	lock		xaddq	%rdi, _heap_ptr_(%rip)
	movq	$3, (%rdi)
	movq	%rax, 8(%rdi)
	jmp	.LBB17_62
.LBB17_41:                              # %block.Cidr_Prelude.Bool.True.6479
	movq	(%r15), %rdi
	callq	_prim_string_reverse
	movl	$16, %ebx
	movl	$16, %edi
	lock		xaddq	%rdi, _heap_ptr_(%rip)
	movq	$3, (%rdi)
	movq	%rax, 8(%rdi)
	callq	.Lidris_str_tail
	movl	$16, %edi
	lock		xaddq	%rdi, _heap_ptr_(%rip)
	movq	%rax, (%rdi)
	movq	%rdx, 8(%rdi)
	callq	.Lidris_str_tail
	movl	$16, %edi
	lock		xaddq	%rdi, _heap_ptr_(%rip)
	movq	%rax, (%rdi)
	movq	%rdx, 8(%rdi)
	movl	$16, %esi
	lock		xaddq	%rsi, _heap_ptr_(%rip)
	movq	$3, (%rsi)
	movq	$str.3, 8(%rsi)
	callq	.Lidris_str_eq
	lock		xaddq	%rbx, _heap_ptr_(%rip)
	movq	%rax, (%rbx)
	movq	%rdx, 8(%rbx)
	cmpq	$2, %rax
	jne	.LBB17_540
# %bb.42:                               # %block.CGrInt.6519
	xorl	%ecx, %ecx
	testq	%rdx, %rdx
	sete	%dl
	movl	$8, %eax
	lock		xaddq	%rax, _heap_ptr_(%rip)
	xorl	%esi, %esi
	testb	%sil, %sil
	jne	.LBB17_540
# %bb.43:                               # %block.exit.6535
	movb	%dl, %cl
	orq	$6, %rcx
	movq	%rcx, (%rax)
	movl	$8, %ecx
	lock		xaddq	%rcx, _heap_ptr_(%rip)
	movq	$7, (%rcx)
	xorl	%ecx, %ecx
	testb	%cl, %cl
	jne	.LBB17_540
# %bb.44:                               # %block.Cidr_Prelude.Bool.True.13421.i874
	movq	(%rax), %rax
	cmpq	$6, %rax
	je	.LBB17_45
# %bb.46:                               # %block.Cidr_Prelude.Bool.True.13421.i874
	cmpq	$7, %rax
	jne	.LBB17_540
# %bb.47:                               # %block.Cidr_Prelude.Bool.True.13426.i875
	movl	$7, %eax
	cmpq	$6, %rax
	je	.LBB17_49
.LBB17_50:                              # %block.exit.13429.i878
	cmpq	$7, %rax
	jne	.LBB17_540
# %bb.51:                               # %block.Cidr_Prelude.Bool.True.13433.i879
	movl	$27, %eax
	jmp	.LBB17_52
.LBB17_45:
	movl	$6, %eax
	cmpq	$6, %rax
	jne	.LBB17_50
.LBB17_49:
	movl	$26, %eax
.LBB17_52:                              # %"idr_Decidable.Equality.Decidable.Equality.@Decidable.Equality.DecEq$Bool:!decEq:0.exit883"
	movl	$8, %ecx
	lock		xaddq	%rcx, _heap_ptr_(%rip)
	movq	%rax, %rdx
	andq	$-2, %rdx
	cmpq	$26, %rdx
	jne	.LBB17_540
# %bb.53:                               # %block.exit.6552
	movq	%rax, (%rcx)
	jne	.LBB17_540
# %bb.54:                               # %block.exit.6560
	movq	(%rcx), %rax
	cmpq	$26, %rax
	je	.LBB17_14
# %bb.55:                               # %block.exit.6560
	cmpq	$27, %rax
	jne	.LBB17_540
# %bb.56:                               # %block.Cidr_Prelude.Basics.Yes.6565
	movq	(%r15), %rdi
	callq	_prim_string_reverse
	movl	$16, %ebx
	movl	$16, %edi
	lock		xaddq	%rdi, _heap_ptr_(%rip)
	movq	$3, (%rdi)
	movq	%rax, 8(%rdi)
	callq	.Lidris_str_tail
	movl	$16, %edi
	lock		xaddq	%rdi, _heap_ptr_(%rip)
	movq	%rax, (%rdi)
	movq	%rdx, 8(%rdi)
	callq	.Lidris_str_tail
	movl	$16, %edi
	lock		xaddq	%rdi, _heap_ptr_(%rip)
	movq	%rax, (%rdi)
	movq	%rdx, 8(%rdi)
	callq	.Lidris_str_head
	lock		xaddq	%rbx, _heap_ptr_(%rip)
	movq	%rax, (%rbx)
	movq	%rdx, 8(%rbx)
	movq	%rbx, %rdi
	callq	.Lidr_Prelude.Chars.isSpace
	movl	$8, %ecx
	lock		xaddq	%rcx, _heap_ptr_(%rip)
	movq	%rax, %rdx
	andq	$-2, %rdx
	cmpq	$6, %rdx
	jne	.LBB17_540
# %bb.57:                               # %block.exit.6604
	movq	%rax, (%rcx)
	jne	.LBB17_540
# %bb.58:                               # %block.exit.6612
	movq	(%rcx), %rax
	cmpq	$7, %rax
	je	.LBB17_64
# %bb.59:                               # %block.exit.6612
	cmpq	$6, %rax
	jne	.LBB17_540
# %bb.60:                               # %block.Cidr_Prelude.Bool.False.6615
	movq	(%r15), %rdi
	callq	_prim_string_reverse
	movl	$16, %r14d
	movl	$16, %edi
	lock		xaddq	%rdi, _heap_ptr_(%rip)
	movq	$3, (%rdi)
	movq	%rax, 8(%rdi)
	callq	.Lidris_str_tail
	movl	$16, %edi
	lock		xaddq	%rdi, _heap_ptr_(%rip)
	movq	%rax, (%rdi)
	movq	%rdx, 8(%rdi)
	callq	.Lidris_str_tail
	movl	$16, %edi
	lock		xaddq	%rdi, _heap_ptr_(%rip)
	movq	%rax, (%rdi)
	movq	%rdx, 8(%rdi)
	callq	.Lidris_str_head
	movl	$16, %ebx
	lock		xaddq	%rbx, _heap_ptr_(%rip)
	movq	%rax, (%rbx)
	movq	%rdx, 8(%rbx)
	movq	(%r15), %rdi
	callq	_prim_string_reverse
	movl	$16, %edi
	lock		xaddq	%rdi, _heap_ptr_(%rip)
	movq	$3, (%rdi)
	movq	%rax, 8(%rdi)
.LBB17_61:                              # %block.exit.7118
	callq	.Lidris_str_tail
	movl	$16, %edi
	lock		xaddq	%rdi, _heap_ptr_(%rip)
	movq	%rax, (%rdi)
	movq	%rdx, 8(%rdi)
.LBB17_62:                              # %block.exit.7118
	callq	.Lidris_str_tail
	movl	$16, %edi
	lock		xaddq	%rdi, _heap_ptr_(%rip)
	movq	%rax, (%rdi)
	movq	%rdx, 8(%rdi)
.LBB17_63:                              # %block.exit.7118
	callq	.Lidris_str_tail
	lock		xaddq	%r14, _heap_ptr_(%rip)
	movq	%rax, (%r14)
	movq	%rdx, 8(%r14)
	movq	8(%rbx), %rdi
	movq	%r14, %rsi
	callq	.Lidris_str_cons
.LBB17_106:                             # %block.exit.7118
	movq	%rdx, %rdi
	jmp	.LBB17_107
.LBB17_64:                              # %block.Cidr_Prelude.Bool.True.6673
	movq	(%r15), %rdi
	callq	_prim_string_reverse
	movl	$16, %ebx
	movl	$16, %edi
	lock		xaddq	%rdi, _heap_ptr_(%rip)
	movq	$3, (%rdi)
	movq	%rax, 8(%rdi)
	callq	.Lidris_str_tail
	movl	$16, %edi
	lock		xaddq	%rdi, _heap_ptr_(%rip)
	movq	%rax, (%rdi)
	movq	%rdx, 8(%rdi)
	callq	.Lidris_str_tail
	movl	$16, %edi
	lock		xaddq	%rdi, _heap_ptr_(%rip)
	movq	%rax, (%rdi)
	movq	%rdx, 8(%rdi)
	callq	.Lidris_str_tail
	movl	$16, %edi
	lock		xaddq	%rdi, _heap_ptr_(%rip)
	movq	%rax, (%rdi)
	movq	%rdx, 8(%rdi)
	movl	$16, %esi
	lock		xaddq	%rsi, _heap_ptr_(%rip)
	movq	$3, (%rsi)
	movq	$str.3, 8(%rsi)
	callq	.Lidris_str_eq
	lock		xaddq	%rbx, _heap_ptr_(%rip)
	movq	%rax, (%rbx)
	movq	%rdx, 8(%rbx)
	cmpq	$2, %rax
	jne	.LBB17_540
# %bb.65:                               # %block.CGrInt.6720
	xorl	%ecx, %ecx
	testq	%rdx, %rdx
	sete	%dl
	movl	$8, %eax
	lock		xaddq	%rax, _heap_ptr_(%rip)
	xorl	%esi, %esi
	testb	%sil, %sil
	jne	.LBB17_540
# %bb.66:                               # %block.exit.6736
	movb	%dl, %cl
	orq	$6, %rcx
	movq	%rcx, (%rax)
	movl	$8, %ecx
	lock		xaddq	%rcx, _heap_ptr_(%rip)
	movq	$7, (%rcx)
	xorl	%ecx, %ecx
	testb	%cl, %cl
	jne	.LBB17_540
# %bb.67:                               # %block.Cidr_Prelude.Bool.True.13421.i898
	movq	(%rax), %rax
	cmpq	$6, %rax
	je	.LBB17_68
# %bb.69:                               # %block.Cidr_Prelude.Bool.True.13421.i898
	cmpq	$7, %rax
	jne	.LBB17_540
# %bb.70:                               # %block.Cidr_Prelude.Bool.True.13426.i899
	movl	$7, %eax
	cmpq	$6, %rax
	jne	.LBB17_73
	jmp	.LBB17_72
.LBB17_68:
	movl	$6, %eax
	cmpq	$6, %rax
	je	.LBB17_72
.LBB17_73:                              # %block.exit.13429.i902
	cmpq	$7, %rax
	jne	.LBB17_540
# %bb.74:                               # %block.Cidr_Prelude.Bool.True.13433.i903
	movl	$27, %eax
	jmp	.LBB17_75
.LBB17_72:
	movl	$26, %eax
.LBB17_75:                              # %"idr_Decidable.Equality.Decidable.Equality.@Decidable.Equality.DecEq$Bool:!decEq:0.exit907"
	movl	$8, %ecx
	lock		xaddq	%rcx, _heap_ptr_(%rip)
	movq	%rax, %rdx
	andq	$-2, %rdx
	cmpq	$26, %rdx
	jne	.LBB17_540
# %bb.76:                               # %block.exit.6753
	movq	%rax, (%rcx)
	jne	.LBB17_540
# %bb.77:                               # %block.exit.6761
	movq	(%rcx), %rax
	cmpq	$26, %rax
	je	.LBB17_14
# %bb.78:                               # %block.exit.6761
	cmpq	$27, %rax
	jne	.LBB17_540
# %bb.79:                               # %block.Cidr_Prelude.Basics.Yes.6766
	movq	(%r15), %rdi
	callq	_prim_string_reverse
	movl	$16, %ebx
	movl	$16, %edi
	lock		xaddq	%rdi, _heap_ptr_(%rip)
	movq	$3, (%rdi)
	movq	%rax, 8(%rdi)
	callq	.Lidris_str_tail
	movl	$16, %edi
	lock		xaddq	%rdi, _heap_ptr_(%rip)
	movq	%rax, (%rdi)
	movq	%rdx, 8(%rdi)
	callq	.Lidris_str_tail
	movl	$16, %edi
	lock		xaddq	%rdi, _heap_ptr_(%rip)
	movq	%rax, (%rdi)
	movq	%rdx, 8(%rdi)
	callq	.Lidris_str_tail
	movl	$16, %edi
	lock		xaddq	%rdi, _heap_ptr_(%rip)
	movq	%rax, (%rdi)
	movq	%rdx, 8(%rdi)
	callq	.Lidris_str_head
	lock		xaddq	%rbx, _heap_ptr_(%rip)
	movq	%rax, (%rbx)
	movq	%rdx, 8(%rbx)
	movq	%rbx, %rdi
	callq	.Lidr_Prelude.Chars.isSpace
	movl	$8, %ecx
	lock		xaddq	%rcx, _heap_ptr_(%rip)
	movq	%rax, %rdx
	andq	$-2, %rdx
	cmpq	$6, %rdx
	jne	.LBB17_540
# %bb.80:                               # %block.exit.6812
	movq	%rax, (%rcx)
	jne	.LBB17_540
# %bb.81:                               # %block.exit.6820
	movq	(%rcx), %rax
	cmpq	$7, %rax
	je	.LBB17_84
# %bb.82:                               # %block.exit.6820
	cmpq	$6, %rax
	jne	.LBB17_540
# %bb.83:                               # %block.Cidr_Prelude.Bool.False.6823
	movq	(%r15), %rdi
	callq	_prim_string_reverse
	movl	$16, %r14d
	movl	$16, %edi
	lock		xaddq	%rdi, _heap_ptr_(%rip)
	movq	$3, (%rdi)
	movq	%rax, 8(%rdi)
	callq	.Lidris_str_tail
	movl	$16, %edi
	lock		xaddq	%rdi, _heap_ptr_(%rip)
	movq	%rax, (%rdi)
	movq	%rdx, 8(%rdi)
	callq	.Lidris_str_tail
	movl	$16, %edi
	lock		xaddq	%rdi, _heap_ptr_(%rip)
	movq	%rax, (%rdi)
	movq	%rdx, 8(%rdi)
	callq	.Lidris_str_tail
	movl	$16, %edi
	lock		xaddq	%rdi, _heap_ptr_(%rip)
	movq	%rax, (%rdi)
	movq	%rdx, 8(%rdi)
	callq	.Lidris_str_head
	movl	$16, %ebx
	lock		xaddq	%rbx, _heap_ptr_(%rip)
	movq	%rax, (%rbx)
	movq	%rdx, 8(%rbx)
	movq	(%r15), %rdi
	callq	_prim_string_reverse
	movl	$16, %edi
	lock		xaddq	%rdi, _heap_ptr_(%rip)
	movq	$3, (%rdi)
	movq	%rax, 8(%rdi)
	callq	.Lidris_str_tail
	movl	$16, %edi
	lock		xaddq	%rdi, _heap_ptr_(%rip)
	movq	%rax, (%rdi)
	movq	%rdx, 8(%rdi)
	jmp	.LBB17_61
.LBB17_14:
	movl	$str.3, %edi
	movl	$3, %eax
.LBB17_107:                             # %block.exit.7118
	movl	$16, %ebx
	movl	$16, %ecx
	lock		xaddq	%rcx, _heap_ptr_(%rip)
	movq	%rax, (%rcx)
	movq	%rdi, 8(%rcx)
	callq	_prim_string_reverse
	movl	$16, %edi
	lock		xaddq	%rdi, _heap_ptr_(%rip)
	movq	$3, (%rdi)
	movq	%rax, 8(%rdi)
	movl	$16, %esi
	lock		xaddq	%rsi, _heap_ptr_(%rip)
	movq	$3, (%rsi)
	movq	$str.3, 8(%rsi)
	callq	.Lidris_str_eq
	lock		xaddq	%rbx, _heap_ptr_(%rip)
	movq	%rax, (%rbx)
	movq	%rdx, 8(%rbx)
	cmpq	$2, %rax
	jne	.LBB17_540
# %bb.108:                              # %block.CGrInt.7151
	xorl	%ecx, %ecx
	testq	%rdx, %rdx
	sete	%dl
	movl	$8, %eax
	lock		xaddq	%rax, _heap_ptr_(%rip)
	xorl	%esi, %esi
	testb	%sil, %sil
	jne	.LBB17_540
# %bb.109:                              # %block.exit.7167
	movb	%dl, %cl
	orq	$6, %rcx
	movq	%rcx, (%rax)
	movl	$8, %ecx
	lock		xaddq	%rcx, _heap_ptr_(%rip)
	movq	$7, (%rcx)
	xorl	%ecx, %ecx
	testb	%cl, %cl
	jne	.LBB17_540
# %bb.110:                              # %block.Cidr_Prelude.Bool.True.13421.i943
	movq	(%rax), %rax
	cmpq	$6, %rax
	je	.LBB17_111
# %bb.112:                              # %block.Cidr_Prelude.Bool.True.13421.i943
	cmpq	$7, %rax
	jne	.LBB17_540
# %bb.113:                              # %block.Cidr_Prelude.Bool.True.13426.i944
	movl	$7, %eax
	cmpq	$6, %rax
	je	.LBB17_115
.LBB17_116:                             # %block.exit.13429.i947
	cmpq	$7, %rax
	jne	.LBB17_540
# %bb.117:                              # %block.Cidr_Prelude.Bool.True.13433.i948
	movl	$27, %eax
	jmp	.LBB17_118
.LBB17_111:
	movl	$6, %eax
	cmpq	$6, %rax
	jne	.LBB17_116
.LBB17_115:
	movl	$26, %eax
.LBB17_118:                             # %"idr_Decidable.Equality.Decidable.Equality.@Decidable.Equality.DecEq$Bool:!decEq:0.exit952"
	movl	$8, %ecx
	lock		xaddq	%rcx, _heap_ptr_(%rip)
	movq	%rax, %rdx
	andq	$-2, %rdx
	cmpq	$26, %rdx
	jne	.LBB17_540
# %bb.119:                              # %block.exit.7184
	movq	%rax, (%rcx)
	jne	.LBB17_540
# %bb.120:                              # %block.exit.7192
	movq	(%rcx), %rax
	cmpq	$26, %rax
	je	.LBB17_539
# %bb.121:                              # %block.exit.7192
	cmpq	$27, %rax
	jne	.LBB17_540
# %bb.122:                              # %block.Cidr_Prelude.Basics.Yes.7197
	movq	(%r15), %rdi
	callq	_prim_string_reverse
	movl	$16, %ebx
	movl	$16, %edi
	lock		xaddq	%rdi, _heap_ptr_(%rip)
	movq	$3, (%rdi)
	movq	%rax, 8(%rdi)
	movl	$16, %esi
	lock		xaddq	%rsi, _heap_ptr_(%rip)
	movq	$3, (%rsi)
	movq	$str.3, 8(%rsi)
	callq	.Lidris_str_eq
	lock		xaddq	%rbx, _heap_ptr_(%rip)
	movq	%rax, (%rbx)
	movq	%rdx, 8(%rbx)
	cmpq	$2, %rax
	jne	.LBB17_540
# %bb.123:                              # %block.CGrInt.7223
	xorl	%ecx, %ecx
	testq	%rdx, %rdx
	sete	%dl
	movl	$8, %eax
	lock		xaddq	%rax, _heap_ptr_(%rip)
	xorl	%esi, %esi
	testb	%sil, %sil
	jne	.LBB17_540
# %bb.124:                              # %block.exit.7239
	movb	%dl, %cl
	orq	$6, %rcx
	movq	%rcx, (%rax)
	movl	$8, %ecx
	lock		xaddq	%rcx, _heap_ptr_(%rip)
	movq	$7, (%rcx)
	xorl	%ecx, %ecx
	testb	%cl, %cl
	jne	.LBB17_540
# %bb.125:                              # %block.Cidr_Prelude.Bool.True.13421.i958
	movq	(%rax), %rax
	cmpq	$6, %rax
	je	.LBB17_126
# %bb.127:                              # %block.Cidr_Prelude.Bool.True.13421.i958
	cmpq	$7, %rax
	jne	.LBB17_540
# %bb.128:                              # %block.Cidr_Prelude.Bool.True.13426.i959
	movl	$7, %eax
	cmpq	$6, %rax
	je	.LBB17_130
.LBB17_131:                             # %block.exit.13429.i962
	cmpq	$7, %rax
	jne	.LBB17_540
# %bb.132:                              # %block.Cidr_Prelude.Bool.True.13433.i963
	movl	$27, %eax
	jmp	.LBB17_133
.LBB17_539:                             # %block.exit.10315
	movl	$3, %eax
	movl	$str.3, %edx
	addq	$8, %rsp
	.cfi_def_cfa_offset 40
	popq	%rbx
	.cfi_def_cfa_offset 32
	popq	%r12
	.cfi_def_cfa_offset 24
	popq	%r14
	.cfi_def_cfa_offset 16
	popq	%r15
	.cfi_def_cfa_offset 8
	retq
.LBB17_126:
	.cfi_def_cfa_offset 48
	movl	$6, %eax
	cmpq	$6, %rax
	jne	.LBB17_131
.LBB17_130:
	movl	$26, %eax
.LBB17_133:                             # %"idr_Decidable.Equality.Decidable.Equality.@Decidable.Equality.DecEq$Bool:!decEq:0.exit967"
	movl	$8, %ecx
	lock		xaddq	%rcx, _heap_ptr_(%rip)
	movq	%rax, %rdx
	andq	$-2, %rdx
	cmpq	$26, %rdx
	jne	.LBB17_540
# %bb.134:                              # %block.exit.7256
	movq	%rax, (%rcx)
	jne	.LBB17_540
# %bb.135:                              # %block.exit.7264
	movq	(%rcx), %rax
	cmpq	$26, %rax
	je	.LBB17_136
# %bb.137:                              # %block.exit.7264
	cmpq	$27, %rax
	jne	.LBB17_540
# %bb.138:                              # %block.Cidr_Prelude.Basics.Yes.7269
	movq	(%r15), %rdi
	callq	_prim_string_reverse
	movl	$16, %ebx
	movl	$16, %edi
	lock		xaddq	%rdi, _heap_ptr_(%rip)
	movq	$3, (%rdi)
	movq	%rax, 8(%rdi)
	callq	.Lidris_str_head
	lock		xaddq	%rbx, _heap_ptr_(%rip)
	movq	%rax, (%rbx)
	movq	%rdx, 8(%rbx)
	movq	%rbx, %rdi
	callq	.Lidr_Prelude.Chars.isSpace
	movl	$8, %ecx
	lock		xaddq	%rcx, _heap_ptr_(%rip)
	movq	%rax, %rdx
	andq	$-2, %rdx
	cmpq	$6, %rdx
	jne	.LBB17_540
# %bb.139:                              # %block.exit.7294
	movq	%rax, (%rcx)
	jne	.LBB17_540
# %bb.140:                              # %block.exit.7302
	movq	(%rcx), %rax
	cmpq	$7, %rax
	je	.LBB17_144
# %bb.141:                              # %block.exit.7302
	cmpq	$6, %rax
	jne	.LBB17_540
# %bb.142:                              # %block.Cidr_Prelude.Bool.False.7305
	movq	(%r15), %rdi
	callq	_prim_string_reverse
	movl	$16, %r14d
	movl	$16, %edi
	lock		xaddq	%rdi, _heap_ptr_(%rip)
	movq	$3, (%rdi)
	movq	%rax, 8(%rdi)
	callq	.Lidris_str_head
	movl	$16, %ebx
	lock		xaddq	%rbx, _heap_ptr_(%rip)
	movq	%rax, (%rbx)
	movq	%rdx, 8(%rbx)
	movq	(%r15), %rdi
	callq	_prim_string_reverse
	movl	$16, %edi
	lock		xaddq	%rdi, _heap_ptr_(%rip)
	movq	$3, (%rdi)
	movq	%rax, 8(%rdi)
.LBB17_143:                             # %block.exit.7674
	callq	.Lidris_str_tail
	lock		xaddq	%r14, _heap_ptr_(%rip)
	movq	%rax, (%r14)
	movq	%rdx, 8(%r14)
	movq	8(%rbx), %rdi
	movq	%r14, %rsi
	callq	.Lidris_str_cons
.LBB17_186:                             # %block.exit.7674
	movq	%rdx, %rdi
	jmp	.LBB17_187
.LBB17_144:                             # %block.Cidr_Prelude.Bool.True.7335
	movq	(%r15), %rdi
	callq	_prim_string_reverse
	movl	$16, %ebx
	movl	$16, %edi
	lock		xaddq	%rdi, _heap_ptr_(%rip)
	movq	$3, (%rdi)
	movq	%rax, 8(%rdi)
	callq	.Lidris_str_tail
	movl	$16, %edi
	lock		xaddq	%rdi, _heap_ptr_(%rip)
	movq	%rax, (%rdi)
	movq	%rdx, 8(%rdi)
	movl	$16, %esi
	lock		xaddq	%rsi, _heap_ptr_(%rip)
	movq	$3, (%rsi)
	movq	$str.3, 8(%rsi)
	callq	.Lidris_str_eq
	lock		xaddq	%rbx, _heap_ptr_(%rip)
	movq	%rax, (%rbx)
	movq	%rdx, 8(%rbx)
	cmpq	$2, %rax
	jne	.LBB17_540
# %bb.145:                              # %block.CGrInt.7368
	xorl	%ecx, %ecx
	testq	%rdx, %rdx
	sete	%dl
	movl	$8, %eax
	lock		xaddq	%rax, _heap_ptr_(%rip)
	xorl	%esi, %esi
	testb	%sil, %sil
	jne	.LBB17_540
# %bb.146:                              # %block.exit.7384
	movb	%dl, %cl
	orq	$6, %rcx
	movq	%rcx, (%rax)
	movl	$8, %ecx
	lock		xaddq	%rcx, _heap_ptr_(%rip)
	movq	$7, (%rcx)
	xorl	%ecx, %ecx
	testb	%cl, %cl
	jne	.LBB17_540
# %bb.147:                              # %block.Cidr_Prelude.Bool.True.13421.i982
	movq	(%rax), %rax
	cmpq	$6, %rax
	je	.LBB17_148
# %bb.149:                              # %block.Cidr_Prelude.Bool.True.13421.i982
	cmpq	$7, %rax
	jne	.LBB17_540
# %bb.150:                              # %block.Cidr_Prelude.Bool.True.13426.i983
	movl	$7, %eax
	cmpq	$6, %rax
	je	.LBB17_152
.LBB17_153:                             # %block.exit.13429.i986
	cmpq	$7, %rax
	jne	.LBB17_540
# %bb.154:                              # %block.Cidr_Prelude.Bool.True.13433.i987
	movl	$27, %eax
	jmp	.LBB17_155
.LBB17_148:
	movl	$6, %eax
	cmpq	$6, %rax
	jne	.LBB17_153
.LBB17_152:
	movl	$26, %eax
.LBB17_155:                             # %"idr_Decidable.Equality.Decidable.Equality.@Decidable.Equality.DecEq$Bool:!decEq:0.exit991"
	movl	$8, %ecx
	lock		xaddq	%rcx, _heap_ptr_(%rip)
	movq	%rax, %rdx
	andq	$-2, %rdx
	cmpq	$26, %rdx
	jne	.LBB17_540
# %bb.156:                              # %block.exit.7401
	movq	%rax, (%rcx)
	jne	.LBB17_540
# %bb.157:                              # %block.exit.7409
	movq	(%rcx), %rax
	cmpq	$26, %rax
	je	.LBB17_136
# %bb.158:                              # %block.exit.7409
	cmpq	$27, %rax
	jne	.LBB17_540
# %bb.159:                              # %block.Cidr_Prelude.Basics.Yes.7414
	movq	(%r15), %rdi
	callq	_prim_string_reverse
	movl	$16, %ebx
	movl	$16, %edi
	lock		xaddq	%rdi, _heap_ptr_(%rip)
	movq	$3, (%rdi)
	movq	%rax, 8(%rdi)
	callq	.Lidris_str_tail
	movl	$16, %edi
	lock		xaddq	%rdi, _heap_ptr_(%rip)
	movq	%rax, (%rdi)
	movq	%rdx, 8(%rdi)
	callq	.Lidris_str_head
	lock		xaddq	%rbx, _heap_ptr_(%rip)
	movq	%rax, (%rbx)
	movq	%rdx, 8(%rbx)
	movq	%rbx, %rdi
	callq	.Lidr_Prelude.Chars.isSpace
	movl	$8, %ecx
	lock		xaddq	%rcx, _heap_ptr_(%rip)
	movq	%rax, %rdx
	andq	$-2, %rdx
	cmpq	$6, %rdx
	jne	.LBB17_540
# %bb.160:                              # %block.exit.7446
	movq	%rax, (%rcx)
	jne	.LBB17_540
# %bb.161:                              # %block.exit.7454
	movq	(%rcx), %rax
	cmpq	$7, %rax
	je	.LBB17_164
# %bb.162:                              # %block.exit.7454
	cmpq	$6, %rax
	jne	.LBB17_540
# %bb.163:                              # %block.Cidr_Prelude.Bool.False.7457
	movq	(%r15), %rdi
	callq	_prim_string_reverse
	movl	$16, %r14d
	movl	$16, %edi
	lock		xaddq	%rdi, _heap_ptr_(%rip)
	movq	$3, (%rdi)
	movq	%rax, 8(%rdi)
	callq	.Lidris_str_tail
	movl	$16, %edi
	lock		xaddq	%rdi, _heap_ptr_(%rip)
	movq	%rax, (%rdi)
	movq	%rdx, 8(%rdi)
	callq	.Lidris_str_head
	movl	$16, %ebx
	lock		xaddq	%rbx, _heap_ptr_(%rip)
	movq	%rax, (%rbx)
	movq	%rdx, 8(%rbx)
	movq	(%r15), %rdi
	callq	_prim_string_reverse
	movl	$16, %edi
	lock		xaddq	%rdi, _heap_ptr_(%rip)
	movq	$3, (%rdi)
	movq	%rax, 8(%rdi)
	callq	.Lidris_str_tail
	movl	$16, %edi
	lock		xaddq	%rdi, _heap_ptr_(%rip)
	movq	%rax, (%rdi)
	movq	%rdx, 8(%rdi)
	jmp	.LBB17_143
.LBB17_136:
	movl	$str.3, %edi
	movl	$3, %eax
.LBB17_187:                             # %block.exit.7674
	movl	$16, %ebx
	movl	$16, %ecx
	lock		xaddq	%rcx, _heap_ptr_(%rip)
	movq	%rax, (%rcx)
	movq	%rdi, 8(%rcx)
	callq	_prim_string_reverse
	movl	$16, %edi
	lock		xaddq	%rdi, _heap_ptr_(%rip)
	movq	$3, (%rdi)
	movq	%rax, 8(%rdi)
	callq	.Lidris_str_head
	lock		xaddq	%rbx, _heap_ptr_(%rip)
	movq	%rax, (%rbx)
	movq	%rdx, 8(%rbx)
	movq	%rbx, %rdi
	callq	.Lidr_Prelude.Chars.isSpace
	movl	$8, %ecx
	lock		xaddq	%rcx, _heap_ptr_(%rip)
	movq	%rax, %rdx
	andq	$-2, %rdx
	cmpq	$6, %rdx
	jne	.LBB17_540
# %bb.188:                              # %block.exit.7706
	movq	%rax, (%rcx)
	jne	.LBB17_540
# %bb.189:                              # %block.exit.7714
	movq	(%rcx), %rax
	cmpq	$7, %rax
	je	.LBB17_322
# %bb.190:                              # %block.exit.7714
	cmpq	$6, %rax
	jne	.LBB17_540
# %bb.191:                              # %block.Cidr_Prelude.Bool.False.7717
	movq	(%r15), %rdi
	callq	_prim_string_reverse
	movl	$16, %ebx
	movl	$16, %edi
	lock		xaddq	%rdi, _heap_ptr_(%rip)
	movq	$3, (%rdi)
	movq	%rax, 8(%rdi)
	movl	$16, %esi
	lock		xaddq	%rsi, _heap_ptr_(%rip)
	movq	$3, (%rsi)
	movq	$str.3, 8(%rsi)
	callq	.Lidris_str_eq
	lock		xaddq	%rbx, _heap_ptr_(%rip)
	movq	%rax, (%rbx)
	movq	%rdx, 8(%rbx)
	cmpq	$2, %rax
	jne	.LBB17_540
# %bb.192:                              # %block.CGrInt.7743
	xorl	%ecx, %ecx
	testq	%rdx, %rdx
	sete	%dl
	movl	$8, %eax
	lock		xaddq	%rax, _heap_ptr_(%rip)
	xorl	%esi, %esi
	testb	%sil, %sil
	jne	.LBB17_540
# %bb.193:                              # %block.exit.7759
	movb	%dl, %cl
	orq	$6, %rcx
	movq	%rcx, (%rax)
	movl	$8, %ecx
	lock		xaddq	%rcx, _heap_ptr_(%rip)
	movq	$7, (%rcx)
	xorl	%ecx, %ecx
	testb	%cl, %cl
	jne	.LBB17_540
# %bb.194:                              # %block.Cidr_Prelude.Bool.True.13421.i1030
	movq	(%rax), %rax
	cmpq	$6, %rax
	je	.LBB17_195
# %bb.196:                              # %block.Cidr_Prelude.Bool.True.13421.i1030
	cmpq	$7, %rax
	jne	.LBB17_540
# %bb.197:                              # %block.Cidr_Prelude.Bool.True.13426.i1031
	movl	$7, %eax
	cmpq	$6, %rax
	je	.LBB17_199
.LBB17_200:                             # %block.exit.13429.i1034
	cmpq	$7, %rax
	jne	.LBB17_540
# %bb.201:                              # %block.Cidr_Prelude.Bool.True.13433.i1035
	movl	$27, %eax
	jmp	.LBB17_202
.LBB17_322:                             # %block.Cidr_Prelude.Bool.True.8715
	movl	$8, %eax
	lock		xaddq	%rax, _heap_ptr_(%rip)
	movq	$0, (%rax)
	movq	(%r15), %rdi
	callq	_prim_string_reverse
	movl	$16, %ebx
	movl	$16, %edi
	lock		xaddq	%rdi, _heap_ptr_(%rip)
	movq	$3, (%rdi)
	movq	%rax, 8(%rdi)
	movl	$16, %esi
	lock		xaddq	%rsi, _heap_ptr_(%rip)
	movq	$3, (%rsi)
	movq	$str.3, 8(%rsi)
	callq	.Lidris_str_eq
	lock		xaddq	%rbx, _heap_ptr_(%rip)
	movq	%rax, (%rbx)
	movq	%rdx, 8(%rbx)
	cmpq	$2, %rax
	jne	.LBB17_540
# %bb.323:                              # %block.CGrInt.8747
	xorl	%ecx, %ecx
	testq	%rdx, %rdx
	sete	%dl
	movl	$8, %eax
	lock		xaddq	%rax, _heap_ptr_(%rip)
	xorl	%esi, %esi
	testb	%sil, %sil
	jne	.LBB17_540
# %bb.324:                              # %block.exit.8763
	movb	%dl, %cl
	orq	$6, %rcx
	movq	%rcx, (%rax)
	movl	$8, %ecx
	lock		xaddq	%rcx, _heap_ptr_(%rip)
	movq	$7, (%rcx)
	xorl	%ecx, %ecx
	testb	%cl, %cl
	jne	.LBB17_540
# %bb.325:                              # %block.Cidr_Prelude.Bool.True.13421.i1174
	movq	(%rax), %rax
	cmpq	$6, %rax
	je	.LBB17_326
# %bb.327:                              # %block.Cidr_Prelude.Bool.True.13421.i1174
	cmpq	$7, %rax
	jne	.LBB17_540
# %bb.328:                              # %block.Cidr_Prelude.Bool.True.13426.i1175
	movl	$7, %eax
	cmpq	$6, %rax
	je	.LBB17_330
.LBB17_331:                             # %block.exit.13429.i1178
	cmpq	$7, %rax
	jne	.LBB17_540
# %bb.332:                              # %block.Cidr_Prelude.Bool.True.13433.i1179
	movl	$27, %eax
	jmp	.LBB17_333
.LBB17_195:
	movl	$6, %eax
	cmpq	$6, %rax
	jne	.LBB17_200
.LBB17_199:
	movl	$26, %eax
.LBB17_202:                             # %"idr_Decidable.Equality.Decidable.Equality.@Decidable.Equality.DecEq$Bool:!decEq:0.exit1039"
	movl	$8, %ecx
	lock		xaddq	%rcx, _heap_ptr_(%rip)
	movq	%rax, %rdx
	andq	$-2, %rdx
	cmpq	$26, %rdx
	jne	.LBB17_540
# %bb.203:                              # %block.exit.7776
	movq	%rax, (%rcx)
	jne	.LBB17_540
# %bb.204:                              # %block.exit.7784
	movq	(%rcx), %rax
	cmpq	$26, %rax
	je	.LBB17_205
# %bb.206:                              # %block.exit.7784
	cmpq	$27, %rax
	jne	.LBB17_540
# %bb.207:                              # %block.Cidr_Prelude.Basics.Yes.7789
	movq	(%r15), %rdi
	callq	_prim_string_reverse
	movl	$16, %ebx
	movl	$16, %edi
	lock		xaddq	%rdi, _heap_ptr_(%rip)
	movq	$3, (%rdi)
	movq	%rax, 8(%rdi)
	callq	.Lidris_str_head
	lock		xaddq	%rbx, _heap_ptr_(%rip)
	movq	%rax, (%rbx)
	movq	%rdx, 8(%rbx)
	movq	%rbx, %rdi
	callq	.Lidr_Prelude.Chars.isSpace
	movl	$8, %ecx
	lock		xaddq	%rcx, _heap_ptr_(%rip)
	movq	%rax, %rdx
	andq	$-2, %rdx
	cmpq	$6, %rdx
	jne	.LBB17_540
# %bb.208:                              # %block.exit.7814
	movq	%rax, (%rcx)
	jne	.LBB17_540
# %bb.209:                              # %block.exit.7822
	movq	(%rcx), %rax
	cmpq	$7, %rax
	je	.LBB17_213
# %bb.210:                              # %block.exit.7822
	cmpq	$6, %rax
	jne	.LBB17_540
# %bb.211:                              # %block.Cidr_Prelude.Bool.False.7825
	movq	(%r15), %rdi
	callq	_prim_string_reverse
	movl	$16, %r14d
	movl	$16, %edi
	lock		xaddq	%rdi, _heap_ptr_(%rip)
	movq	$3, (%rdi)
	movq	%rax, 8(%rdi)
	callq	.Lidris_str_head
	movl	$16, %ebx
	lock		xaddq	%rbx, _heap_ptr_(%rip)
	movq	%rax, (%rbx)
	movq	%rdx, 8(%rbx)
	movq	(%r15), %rdi
	callq	_prim_string_reverse
	movl	$16, %edi
	lock		xaddq	%rdi, _heap_ptr_(%rip)
	movq	$3, (%rdi)
	movq	%rax, 8(%rdi)
	jmp	.LBB17_212
.LBB17_326:
	movl	$6, %eax
	cmpq	$6, %rax
	jne	.LBB17_331
.LBB17_330:
	movl	$26, %eax
.LBB17_333:                             # %"idr_Decidable.Equality.Decidable.Equality.@Decidable.Equality.DecEq$Bool:!decEq:0.exit1183"
	movl	$8, %ecx
	lock		xaddq	%rcx, _heap_ptr_(%rip)
	movq	%rax, %rdx
	andq	$-2, %rdx
	cmpq	$26, %rdx
	jne	.LBB17_540
# %bb.334:                              # %block.exit.8780
	movq	%rax, (%rcx)
	jne	.LBB17_540
# %bb.335:                              # %block.exit.8788
	movq	(%rcx), %rax
	cmpq	$26, %rax
	je	.LBB17_336
# %bb.337:                              # %block.exit.8788
	cmpq	$27, %rax
	jne	.LBB17_540
# %bb.338:                              # %block.Cidr_Prelude.Basics.Yes.8793
	movq	(%r15), %rdi
	callq	_prim_string_reverse
	movl	$16, %ebx
	movl	$16, %edi
	lock		xaddq	%rdi, _heap_ptr_(%rip)
	movq	$3, (%rdi)
	movq	%rax, 8(%rdi)
	callq	.Lidris_str_head
	lock		xaddq	%rbx, _heap_ptr_(%rip)
	movq	%rax, (%rbx)
	movq	%rdx, 8(%rbx)
	movq	%rbx, %rdi
	callq	.Lidr_Prelude.Chars.isSpace
	movl	$8, %ecx
	lock		xaddq	%rcx, _heap_ptr_(%rip)
	movq	%rax, %rdx
	andq	$-2, %rdx
	cmpq	$6, %rdx
	jne	.LBB17_540
# %bb.339:                              # %block.exit.8818
	movq	%rax, (%rcx)
	jne	.LBB17_540
# %bb.340:                              # %block.exit.8826
	movq	(%rcx), %rax
	cmpq	$7, %rax
	je	.LBB17_344
# %bb.341:                              # %block.exit.8826
	cmpq	$6, %rax
	jne	.LBB17_540
# %bb.342:                              # %block.Cidr_Prelude.Bool.False.8829
	movq	(%r15), %rdi
	callq	_prim_string_reverse
	movl	$16, %r14d
	movl	$16, %edi
	lock		xaddq	%rdi, _heap_ptr_(%rip)
	movq	$3, (%rdi)
	movq	%rax, 8(%rdi)
	callq	.Lidris_str_head
	movl	$16, %ebx
	lock		xaddq	%rbx, _heap_ptr_(%rip)
	movq	%rax, (%rbx)
	movq	%rdx, 8(%rbx)
	movq	(%r15), %rdi
	callq	_prim_string_reverse
	movl	$16, %edi
	lock		xaddq	%rdi, _heap_ptr_(%rip)
	movq	$3, (%rdi)
	movq	%rax, 8(%rdi)
	jmp	.LBB17_343
.LBB17_213:                             # %block.Cidr_Prelude.Bool.True.7855
	movq	(%r15), %rdi
	callq	_prim_string_reverse
	movl	$16, %ebx
	movl	$16, %edi
	lock		xaddq	%rdi, _heap_ptr_(%rip)
	movq	$3, (%rdi)
	movq	%rax, 8(%rdi)
	callq	.Lidris_str_tail
	movl	$16, %edi
	lock		xaddq	%rdi, _heap_ptr_(%rip)
	movq	%rax, (%rdi)
	movq	%rdx, 8(%rdi)
	movl	$16, %esi
	lock		xaddq	%rsi, _heap_ptr_(%rip)
	movq	$3, (%rsi)
	movq	$str.3, 8(%rsi)
	callq	.Lidris_str_eq
	lock		xaddq	%rbx, _heap_ptr_(%rip)
	movq	%rax, (%rbx)
	movq	%rdx, 8(%rbx)
	cmpq	$2, %rax
	jne	.LBB17_540
# %bb.214:                              # %block.CGrInt.7888
	xorl	%ecx, %ecx
	testq	%rdx, %rdx
	sete	%dl
	movl	$8, %eax
	lock		xaddq	%rax, _heap_ptr_(%rip)
	xorl	%esi, %esi
	testb	%sil, %sil
	jne	.LBB17_540
# %bb.215:                              # %block.exit.7904
	movb	%dl, %cl
	orq	$6, %rcx
	movq	%rcx, (%rax)
	movl	$8, %ecx
	lock		xaddq	%rcx, _heap_ptr_(%rip)
	movq	$7, (%rcx)
	xorl	%ecx, %ecx
	testb	%cl, %cl
	jne	.LBB17_540
# %bb.216:                              # %block.Cidr_Prelude.Bool.True.13421.i1054
	movq	(%rax), %rax
	cmpq	$6, %rax
	je	.LBB17_217
# %bb.218:                              # %block.Cidr_Prelude.Bool.True.13421.i1054
	cmpq	$7, %rax
	jne	.LBB17_540
# %bb.219:                              # %block.Cidr_Prelude.Bool.True.13426.i1055
	movl	$7, %eax
	cmpq	$6, %rax
	je	.LBB17_221
.LBB17_222:                             # %block.exit.13429.i1058
	cmpq	$7, %rax
	jne	.LBB17_540
# %bb.223:                              # %block.Cidr_Prelude.Bool.True.13433.i1059
	movl	$27, %eax
	jmp	.LBB17_224
.LBB17_344:                             # %block.Cidr_Prelude.Bool.True.8859
	movq	(%r15), %rdi
	callq	_prim_string_reverse
	movl	$16, %ebx
	movl	$16, %edi
	lock		xaddq	%rdi, _heap_ptr_(%rip)
	movq	$3, (%rdi)
	movq	%rax, 8(%rdi)
	callq	.Lidris_str_tail
	movl	$16, %edi
	lock		xaddq	%rdi, _heap_ptr_(%rip)
	movq	%rax, (%rdi)
	movq	%rdx, 8(%rdi)
	movl	$16, %esi
	lock		xaddq	%rsi, _heap_ptr_(%rip)
	movq	$3, (%rsi)
	movq	$str.3, 8(%rsi)
	callq	.Lidris_str_eq
	lock		xaddq	%rbx, _heap_ptr_(%rip)
	movq	%rax, (%rbx)
	movq	%rdx, 8(%rbx)
	cmpq	$2, %rax
	jne	.LBB17_540
# %bb.345:                              # %block.CGrInt.8892
	xorl	%ecx, %ecx
	testq	%rdx, %rdx
	sete	%dl
	movl	$8, %eax
	lock		xaddq	%rax, _heap_ptr_(%rip)
	xorl	%esi, %esi
	testb	%sil, %sil
	jne	.LBB17_540
# %bb.346:                              # %block.exit.8908
	movb	%dl, %cl
	orq	$6, %rcx
	movq	%rcx, (%rax)
	movl	$8, %ecx
	lock		xaddq	%rcx, _heap_ptr_(%rip)
	movq	$7, (%rcx)
	xorl	%ecx, %ecx
	testb	%cl, %cl
	jne	.LBB17_540
# %bb.347:                              # %block.Cidr_Prelude.Bool.True.13421.i1198
	movq	(%rax), %rax
	cmpq	$6, %rax
	je	.LBB17_348
# %bb.349:                              # %block.Cidr_Prelude.Bool.True.13421.i1198
	cmpq	$7, %rax
	jne	.LBB17_540
# %bb.350:                              # %block.Cidr_Prelude.Bool.True.13426.i1199
	movl	$7, %eax
	cmpq	$6, %rax
	je	.LBB17_352
.LBB17_353:                             # %block.exit.13429.i1202
	cmpq	$7, %rax
	jne	.LBB17_540
# %bb.354:                              # %block.Cidr_Prelude.Bool.True.13433.i1203
	movl	$27, %eax
	jmp	.LBB17_355
.LBB17_164:                             # %block.Cidr_Prelude.Bool.True.7501
	movl	$8, %eax
	lock		xaddq	%rax, _heap_ptr_(%rip)
	movq	$0, (%rax)
	movq	(%r15), %rdi
	callq	_prim_string_reverse
	movl	$16, %ebx
	movl	$16, %edi
	lock		xaddq	%rdi, _heap_ptr_(%rip)
	movq	$3, (%rdi)
	movq	%rax, 8(%rdi)
	callq	.Lidris_str_tail
	movl	$16, %edi
	lock		xaddq	%rdi, _heap_ptr_(%rip)
	movq	%rax, (%rdi)
	movq	%rdx, 8(%rdi)
	callq	.Lidris_str_tail
	movl	$16, %edi
	lock		xaddq	%rdi, _heap_ptr_(%rip)
	movq	%rax, (%rdi)
	movq	%rdx, 8(%rdi)
	movl	$16, %esi
	lock		xaddq	%rsi, _heap_ptr_(%rip)
	movq	$3, (%rsi)
	movq	$str.3, 8(%rsi)
	callq	.Lidris_str_eq
	lock		xaddq	%rbx, _heap_ptr_(%rip)
	movq	%rax, (%rbx)
	movq	%rdx, 8(%rbx)
	cmpq	$2, %rax
	jne	.LBB17_540
# %bb.165:                              # %block.CGrInt.7547
	xorl	%ecx, %ecx
	testq	%rdx, %rdx
	sete	%dl
	movl	$8, %eax
	lock		xaddq	%rax, _heap_ptr_(%rip)
	xorl	%esi, %esi
	testb	%sil, %sil
	jne	.LBB17_540
# %bb.166:                              # %block.exit.7563
	movb	%dl, %cl
	orq	$6, %rcx
	movq	%rcx, (%rax)
	movl	$8, %ecx
	lock		xaddq	%rcx, _heap_ptr_(%rip)
	movq	$7, (%rcx)
	xorl	%ecx, %ecx
	testb	%cl, %cl
	jne	.LBB17_540
# %bb.167:                              # %block.Cidr_Prelude.Bool.True.13421.i1006
	movq	(%rax), %rax
	cmpq	$6, %rax
	je	.LBB17_168
# %bb.169:                              # %block.Cidr_Prelude.Bool.True.13421.i1006
	cmpq	$7, %rax
	jne	.LBB17_540
# %bb.170:                              # %block.Cidr_Prelude.Bool.True.13426.i1007
	movl	$7, %eax
	cmpq	$6, %rax
	jne	.LBB17_173
	jmp	.LBB17_172
.LBB17_217:
	movl	$6, %eax
	cmpq	$6, %rax
	jne	.LBB17_222
.LBB17_221:
	movl	$26, %eax
.LBB17_224:                             # %"idr_Decidable.Equality.Decidable.Equality.@Decidable.Equality.DecEq$Bool:!decEq:0.exit1063"
	movl	$8, %ecx
	lock		xaddq	%rcx, _heap_ptr_(%rip)
	movq	%rax, %rdx
	andq	$-2, %rdx
	cmpq	$26, %rdx
	jne	.LBB17_540
# %bb.225:                              # %block.exit.7921
	movq	%rax, (%rcx)
	jne	.LBB17_540
# %bb.226:                              # %block.exit.7929
	movq	(%rcx), %rax
	cmpq	$26, %rax
	je	.LBB17_205
# %bb.227:                              # %block.exit.7929
	cmpq	$27, %rax
	jne	.LBB17_540
# %bb.228:                              # %block.Cidr_Prelude.Basics.Yes.7934
	movq	(%r15), %rdi
	callq	_prim_string_reverse
	movl	$16, %ebx
	movl	$16, %edi
	lock		xaddq	%rdi, _heap_ptr_(%rip)
	movq	$3, (%rdi)
	movq	%rax, 8(%rdi)
	callq	.Lidris_str_tail
	movl	$16, %edi
	lock		xaddq	%rdi, _heap_ptr_(%rip)
	movq	%rax, (%rdi)
	movq	%rdx, 8(%rdi)
	callq	.Lidris_str_head
	lock		xaddq	%rbx, _heap_ptr_(%rip)
	movq	%rax, (%rbx)
	movq	%rdx, 8(%rbx)
	movq	%rbx, %rdi
	callq	.Lidr_Prelude.Chars.isSpace
	movl	$8, %ecx
	lock		xaddq	%rcx, _heap_ptr_(%rip)
	movq	%rax, %rdx
	andq	$-2, %rdx
	cmpq	$6, %rdx
	jne	.LBB17_540
# %bb.229:                              # %block.exit.7966
	movq	%rax, (%rcx)
	jne	.LBB17_540
# %bb.230:                              # %block.exit.7974
	movq	(%rcx), %rax
	cmpq	$7, %rax
	je	.LBB17_233
# %bb.231:                              # %block.exit.7974
	cmpq	$6, %rax
	jne	.LBB17_540
# %bb.232:                              # %block.Cidr_Prelude.Bool.False.7977
	movq	(%r15), %rdi
	callq	_prim_string_reverse
	movl	$16, %r14d
	movl	$16, %edi
	lock		xaddq	%rdi, _heap_ptr_(%rip)
	movq	$3, (%rdi)
	movq	%rax, 8(%rdi)
	callq	.Lidris_str_tail
	movl	$16, %edi
	lock		xaddq	%rdi, _heap_ptr_(%rip)
	movq	%rax, (%rdi)
	movq	%rdx, 8(%rdi)
	callq	.Lidris_str_head
	movl	$16, %ebx
	lock		xaddq	%rbx, _heap_ptr_(%rip)
	movq	%rax, (%rbx)
	movq	%rdx, 8(%rbx)
	movq	(%r15), %rdi
	callq	_prim_string_reverse
	movl	$16, %edi
	lock		xaddq	%rdi, _heap_ptr_(%rip)
	movq	$3, (%rdi)
	movq	%rax, 8(%rdi)
	callq	.Lidris_str_tail
	movl	$16, %edi
	lock		xaddq	%rdi, _heap_ptr_(%rip)
	movq	%rax, (%rdi)
	movq	%rdx, 8(%rdi)
.LBB17_212:                             # %block.exit.8194
	callq	.Lidris_str_tail
	lock		xaddq	%r14, _heap_ptr_(%rip)
	movq	%rax, (%r14)
	movq	%rdx, 8(%r14)
	movq	8(%rbx), %rdi
	movq	%r14, %rsi
	callq	.Lidris_str_cons
.LBB17_255:                             # %block.exit.8194
	movq	%rdx, %rdi
	jmp	.LBB17_256
.LBB17_205:
	movl	$str.3, %edi
	movl	$3, %eax
.LBB17_256:                             # %block.exit.8194
	movl	$16, %ebx
	movl	$16, %ecx
	lock		xaddq	%rcx, _heap_ptr_(%rip)
	movq	%rax, (%rcx)
	movq	%rdi, 8(%rcx)
	callq	_prim_string_reverse
	movl	$16, %edi
	lock		xaddq	%rdi, _heap_ptr_(%rip)
	movq	$3, (%rdi)
	movq	%rax, 8(%rdi)
	callq	.Lidris_str_head
	movl	$16, %r14d
	lock		xaddq	%r14, _heap_ptr_(%rip)
	movq	%rax, (%r14)
	movq	%rdx, 8(%r14)
	movq	(%r15), %rdi
	callq	_prim_string_reverse
	movl	$16, %edi
	lock		xaddq	%rdi, _heap_ptr_(%rip)
	movq	$3, (%rdi)
	movq	%rax, 8(%rdi)
	movl	$16, %esi
	lock		xaddq	%rsi, _heap_ptr_(%rip)
	movq	$3, (%rsi)
	movq	$str.3, 8(%rsi)
	callq	.Lidris_str_eq
	lock		xaddq	%rbx, _heap_ptr_(%rip)
	movq	%rax, (%rbx)
	movq	%rdx, 8(%rbx)
	cmpq	$2, %rax
	jne	.LBB17_540
# %bb.257:                              # %block.CGrInt.8241
	xorl	%ecx, %ecx
	testq	%rdx, %rdx
	sete	%dl
	movl	$8, %eax
	lock		xaddq	%rax, _heap_ptr_(%rip)
	xorl	%esi, %esi
	testb	%sil, %sil
	jne	.LBB17_540
# %bb.258:                              # %block.exit.8257
	movb	%dl, %cl
	orq	$6, %rcx
	movq	%rcx, (%rax)
	movl	$8, %ecx
	lock		xaddq	%rcx, _heap_ptr_(%rip)
	movq	$7, (%rcx)
	xorl	%ecx, %ecx
	testb	%cl, %cl
	jne	.LBB17_540
# %bb.259:                              # %block.Cidr_Prelude.Bool.True.13421.i1102
	movq	(%rax), %rax
	cmpq	$6, %rax
	je	.LBB17_260
# %bb.261:                              # %block.Cidr_Prelude.Bool.True.13421.i1102
	cmpq	$7, %rax
	jne	.LBB17_540
# %bb.262:                              # %block.Cidr_Prelude.Bool.True.13426.i1103
	movl	$7, %eax
	cmpq	$6, %rax
	je	.LBB17_264
.LBB17_265:                             # %block.exit.13429.i1106
	cmpq	$7, %rax
	jne	.LBB17_540
# %bb.266:                              # %block.Cidr_Prelude.Bool.True.13433.i1107
	movl	$27, %eax
	jmp	.LBB17_267
.LBB17_260:
	movl	$6, %eax
	cmpq	$6, %rax
	jne	.LBB17_265
.LBB17_264:
	movl	$26, %eax
.LBB17_267:                             # %"idr_Decidable.Equality.Decidable.Equality.@Decidable.Equality.DecEq$Bool:!decEq:0.exit1111"
	movl	$8, %ecx
	lock		xaddq	%rcx, _heap_ptr_(%rip)
	movq	%rax, %rdx
	andq	$-2, %rdx
	cmpq	$26, %rdx
	jne	.LBB17_540
# %bb.268:                              # %block.exit.8274
	movq	%rax, (%rcx)
	jne	.LBB17_540
# %bb.269:                              # %block.exit.8282
	movq	(%rcx), %rax
	cmpq	$26, %rax
	je	.LBB17_270
# %bb.271:                              # %block.exit.8282
	cmpq	$27, %rax
	jne	.LBB17_540
# %bb.272:                              # %block.Cidr_Prelude.Basics.Yes.8287
	movq	(%r15), %rdi
	callq	_prim_string_reverse
	movl	$16, %ebx
	movl	$16, %edi
	lock		xaddq	%rdi, _heap_ptr_(%rip)
	movq	$3, (%rdi)
	movq	%rax, 8(%rdi)
	callq	.Lidris_str_head
	lock		xaddq	%rbx, _heap_ptr_(%rip)
	movq	%rax, (%rbx)
	movq	%rdx, 8(%rbx)
	movq	%rbx, %rdi
	callq	.Lidr_Prelude.Chars.isSpace
	movl	$8, %ecx
	lock		xaddq	%rcx, _heap_ptr_(%rip)
	movq	%rax, %rdx
	andq	$-2, %rdx
	cmpq	$6, %rdx
	jne	.LBB17_540
# %bb.273:                              # %block.exit.8312
	movq	%rax, (%rcx)
	jne	.LBB17_540
# %bb.274:                              # %block.exit.8320
	movq	(%rcx), %rax
	cmpq	$7, %rax
	je	.LBB17_278
# %bb.275:                              # %block.exit.8320
	cmpq	$6, %rax
	jne	.LBB17_540
# %bb.276:                              # %block.Cidr_Prelude.Bool.False.8323
	movq	(%r15), %rdi
	callq	_prim_string_reverse
	movl	$16, %r12d
	movl	$16, %edi
	lock		xaddq	%rdi, _heap_ptr_(%rip)
	movq	$3, (%rdi)
	movq	%rax, 8(%rdi)
	callq	.Lidris_str_head
	movl	$16, %ebx
	lock		xaddq	%rbx, _heap_ptr_(%rip)
	movq	%rax, (%rbx)
	movq	%rdx, 8(%rbx)
	movq	(%r15), %rdi
	callq	_prim_string_reverse
	movl	$16, %edi
	lock		xaddq	%rdi, _heap_ptr_(%rip)
	movq	$3, (%rdi)
	movq	%rax, 8(%rdi)
	jmp	.LBB17_277
.LBB17_278:                             # %block.Cidr_Prelude.Bool.True.8353
	movq	(%r15), %rdi
	callq	_prim_string_reverse
	movl	$16, %ebx
	movl	$16, %edi
	lock		xaddq	%rdi, _heap_ptr_(%rip)
	movq	$3, (%rdi)
	movq	%rax, 8(%rdi)
	callq	.Lidris_str_tail
	movl	$16, %edi
	lock		xaddq	%rdi, _heap_ptr_(%rip)
	movq	%rax, (%rdi)
	movq	%rdx, 8(%rdi)
	movl	$16, %esi
	lock		xaddq	%rsi, _heap_ptr_(%rip)
	movq	$3, (%rsi)
	movq	$str.3, 8(%rsi)
	callq	.Lidris_str_eq
	lock		xaddq	%rbx, _heap_ptr_(%rip)
	movq	%rax, (%rbx)
	movq	%rdx, 8(%rbx)
	cmpq	$2, %rax
	jne	.LBB17_540
# %bb.279:                              # %block.CGrInt.8386
	xorl	%ecx, %ecx
	testq	%rdx, %rdx
	sete	%dl
	movl	$8, %eax
	lock		xaddq	%rax, _heap_ptr_(%rip)
	xorl	%esi, %esi
	testb	%sil, %sil
	jne	.LBB17_540
# %bb.280:                              # %block.exit.8402
	movb	%dl, %cl
	orq	$6, %rcx
	movq	%rcx, (%rax)
	movl	$8, %ecx
	lock		xaddq	%rcx, _heap_ptr_(%rip)
	movq	$7, (%rcx)
	xorl	%ecx, %ecx
	testb	%cl, %cl
	jne	.LBB17_540
# %bb.281:                              # %block.Cidr_Prelude.Bool.True.13421.i1126
	movq	(%rax), %rax
	cmpq	$6, %rax
	je	.LBB17_282
# %bb.283:                              # %block.Cidr_Prelude.Bool.True.13421.i1126
	cmpq	$7, %rax
	jne	.LBB17_540
# %bb.284:                              # %block.Cidr_Prelude.Bool.True.13426.i1127
	movl	$7, %eax
	cmpq	$6, %rax
	je	.LBB17_286
.LBB17_287:                             # %block.exit.13429.i1130
	cmpq	$7, %rax
	jne	.LBB17_540
# %bb.288:                              # %block.Cidr_Prelude.Bool.True.13433.i1131
	movl	$27, %eax
	jmp	.LBB17_289
.LBB17_348:
	movl	$6, %eax
	cmpq	$6, %rax
	jne	.LBB17_353
.LBB17_352:
	movl	$26, %eax
.LBB17_355:                             # %"idr_Decidable.Equality.Decidable.Equality.@Decidable.Equality.DecEq$Bool:!decEq:0.exit1207"
	movl	$8, %ecx
	lock		xaddq	%rcx, _heap_ptr_(%rip)
	movq	%rax, %rdx
	andq	$-2, %rdx
	cmpq	$26, %rdx
	jne	.LBB17_540
# %bb.356:                              # %block.exit.8925
	movq	%rax, (%rcx)
	jne	.LBB17_540
# %bb.357:                              # %block.exit.8933
	movq	(%rcx), %rax
	cmpq	$26, %rax
	je	.LBB17_336
# %bb.358:                              # %block.exit.8933
	cmpq	$27, %rax
	jne	.LBB17_540
# %bb.359:                              # %block.Cidr_Prelude.Basics.Yes.8938
	movq	(%r15), %rdi
	callq	_prim_string_reverse
	movl	$16, %ebx
	movl	$16, %edi
	lock		xaddq	%rdi, _heap_ptr_(%rip)
	movq	$3, (%rdi)
	movq	%rax, 8(%rdi)
	callq	.Lidris_str_tail
	movl	$16, %edi
	lock		xaddq	%rdi, _heap_ptr_(%rip)
	movq	%rax, (%rdi)
	movq	%rdx, 8(%rdi)
	callq	.Lidris_str_head
	lock		xaddq	%rbx, _heap_ptr_(%rip)
	movq	%rax, (%rbx)
	movq	%rdx, 8(%rbx)
	movq	%rbx, %rdi
	callq	.Lidr_Prelude.Chars.isSpace
	movl	$8, %ecx
	lock		xaddq	%rcx, _heap_ptr_(%rip)
	movq	%rax, %rdx
	andq	$-2, %rdx
	cmpq	$6, %rdx
	jne	.LBB17_540
# %bb.360:                              # %block.exit.8970
	movq	%rax, (%rcx)
	jne	.LBB17_540
# %bb.361:                              # %block.exit.8978
	movq	(%rcx), %rax
	cmpq	$7, %rax
	je	.LBB17_364
# %bb.362:                              # %block.exit.8978
	cmpq	$6, %rax
	jne	.LBB17_540
# %bb.363:                              # %block.Cidr_Prelude.Bool.False.8981
	movq	(%r15), %rdi
	callq	_prim_string_reverse
	movl	$16, %r14d
	movl	$16, %edi
	lock		xaddq	%rdi, _heap_ptr_(%rip)
	movq	$3, (%rdi)
	movq	%rax, 8(%rdi)
	callq	.Lidris_str_tail
	movl	$16, %edi
	lock		xaddq	%rdi, _heap_ptr_(%rip)
	movq	%rax, (%rdi)
	movq	%rdx, 8(%rdi)
	callq	.Lidris_str_head
	movl	$16, %ebx
	lock		xaddq	%rbx, _heap_ptr_(%rip)
	movq	%rax, (%rbx)
	movq	%rdx, 8(%rbx)
	movq	(%r15), %rdi
	callq	_prim_string_reverse
	movl	$16, %edi
	lock		xaddq	%rdi, _heap_ptr_(%rip)
	movq	$3, (%rdi)
	movq	%rax, 8(%rdi)
	callq	.Lidris_str_tail
	movl	$16, %edi
	lock		xaddq	%rdi, _heap_ptr_(%rip)
	movq	%rax, (%rdi)
	movq	%rdx, 8(%rdi)
.LBB17_343:                             # %block.exit.9198
	callq	.Lidris_str_tail
	lock		xaddq	%r14, _heap_ptr_(%rip)
	movq	%rax, (%r14)
	movq	%rdx, 8(%r14)
	movq	8(%rbx), %rdi
	movq	%r14, %rsi
	callq	.Lidris_str_cons
.LBB17_386:                             # %block.exit.9198
	movq	%rdx, %rdi
	jmp	.LBB17_387
.LBB17_336:
	movl	$str.3, %edi
	movl	$3, %eax
.LBB17_387:                             # %block.exit.9198
	movl	$16, %ebx
	movl	$16, %ecx
	lock		xaddq	%rcx, _heap_ptr_(%rip)
	movq	%rax, (%rcx)
	movq	%rdi, 8(%rcx)
	callq	_prim_string_reverse
	movl	$16, %edi
	lock		xaddq	%rdi, _heap_ptr_(%rip)
	movq	$3, (%rdi)
	movq	%rax, 8(%rdi)
	callq	.Lidris_str_tail
	movl	$16, %edi
	lock		xaddq	%rdi, _heap_ptr_(%rip)
	movq	%rax, (%rdi)
	movq	%rdx, 8(%rdi)
	movl	$16, %esi
	lock		xaddq	%rsi, _heap_ptr_(%rip)
	movq	$3, (%rsi)
	movq	$str.3, 8(%rsi)
	callq	.Lidris_str_eq
	lock		xaddq	%rbx, _heap_ptr_(%rip)
	movq	%rax, (%rbx)
	movq	%rdx, 8(%rbx)
	cmpq	$2, %rax
	jne	.LBB17_540
# %bb.388:                              # %block.CGrInt.9238
	xorl	%ecx, %ecx
	testq	%rdx, %rdx
	sete	%dl
	movl	$8, %eax
	lock		xaddq	%rax, _heap_ptr_(%rip)
	xorl	%esi, %esi
	testb	%sil, %sil
	jne	.LBB17_540
# %bb.389:                              # %block.exit.9254
	movb	%dl, %cl
	orq	$6, %rcx
	movq	%rcx, (%rax)
	movl	$8, %ecx
	lock		xaddq	%rcx, _heap_ptr_(%rip)
	movq	$7, (%rcx)
	xorl	%ecx, %ecx
	testb	%cl, %cl
	jne	.LBB17_540
# %bb.390:                              # %block.Cidr_Prelude.Bool.True.13421.i1243
	movq	(%rax), %rax
	cmpq	$6, %rax
	je	.LBB17_391
# %bb.392:                              # %block.Cidr_Prelude.Bool.True.13421.i1243
	cmpq	$7, %rax
	jne	.LBB17_540
# %bb.393:                              # %block.Cidr_Prelude.Bool.True.13426.i1244
	movl	$7, %eax
	cmpq	$6, %rax
	je	.LBB17_395
.LBB17_396:                             # %block.exit.13429.i1247
	cmpq	$7, %rax
	jne	.LBB17_540
# %bb.397:                              # %block.Cidr_Prelude.Bool.True.13433.i1248
	movl	$27, %eax
	jmp	.LBB17_398
.LBB17_391:
	movl	$6, %eax
	cmpq	$6, %rax
	jne	.LBB17_396
.LBB17_395:
	movl	$26, %eax
.LBB17_398:                             # %"idr_Decidable.Equality.Decidable.Equality.@Decidable.Equality.DecEq$Bool:!decEq:0.exit1252"
	movl	$8, %ecx
	lock		xaddq	%rcx, _heap_ptr_(%rip)
	movq	%rax, %rdx
	andq	$-2, %rdx
	cmpq	$26, %rdx
	jne	.LBB17_540
# %bb.399:                              # %block.exit.9271
	movq	%rax, (%rcx)
	jne	.LBB17_540
# %bb.400:                              # %block.exit.9279
	movq	(%rcx), %rax
	cmpq	$26, %rax
	je	.LBB17_401
# %bb.402:                              # %block.exit.9279
	cmpq	$27, %rax
	jne	.LBB17_540
# %bb.403:                              # %block.Cidr_Prelude.Basics.Yes.9283
	movq	(%r15), %rdi
	callq	_prim_string_reverse
	movl	$16, %ebx
	movl	$16, %edi
	lock		xaddq	%rdi, _heap_ptr_(%rip)
	movq	$3, (%rdi)
	movq	%rax, 8(%rdi)
	movl	$16, %esi
	lock		xaddq	%rsi, _heap_ptr_(%rip)
	movq	$3, (%rsi)
	movq	$str.3, 8(%rsi)
	callq	.Lidris_str_eq
	lock		xaddq	%rbx, _heap_ptr_(%rip)
	movq	%rax, (%rbx)
	movq	%rdx, 8(%rbx)
	cmpq	$2, %rax
	jne	.LBB17_540
# %bb.404:                              # %block.CGrInt.9309
	xorl	%ecx, %ecx
	testq	%rdx, %rdx
	sete	%dl
	movl	$8, %eax
	lock		xaddq	%rax, _heap_ptr_(%rip)
	xorl	%esi, %esi
	testb	%sil, %sil
	jne	.LBB17_540
# %bb.405:                              # %block.exit.9325
	movb	%dl, %cl
	orq	$6, %rcx
	movq	%rcx, (%rax)
	movl	$8, %ecx
	lock		xaddq	%rcx, _heap_ptr_(%rip)
	movq	$7, (%rcx)
	xorl	%ecx, %ecx
	testb	%cl, %cl
	jne	.LBB17_540
# %bb.406:                              # %block.Cidr_Prelude.Bool.True.13421.i1258
	movq	(%rax), %rax
	cmpq	$6, %rax
	je	.LBB17_407
# %bb.408:                              # %block.Cidr_Prelude.Bool.True.13421.i1258
	cmpq	$7, %rax
	jne	.LBB17_540
# %bb.409:                              # %block.Cidr_Prelude.Bool.True.13426.i1259
	movl	$7, %eax
	cmpq	$6, %rax
	je	.LBB17_411
.LBB17_412:                             # %block.exit.13429.i1262
	cmpq	$7, %rax
	jne	.LBB17_540
# %bb.413:                              # %block.Cidr_Prelude.Bool.True.13433.i1263
	movl	$27, %eax
	jmp	.LBB17_414
.LBB17_401:
	movl	$28, %eax
                                        # implicit-def: $r14
                                        # implicit-def: $rbx
	jmp	.LBB17_534
.LBB17_407:
	movl	$6, %eax
	cmpq	$6, %rax
	jne	.LBB17_412
.LBB17_411:
	movl	$26, %eax
.LBB17_414:                             # %"idr_Decidable.Equality.Decidable.Equality.@Decidable.Equality.DecEq$Bool:!decEq:0.exit1267"
	movl	$8, %ecx
	lock		xaddq	%rcx, _heap_ptr_(%rip)
	movq	%rax, %rdx
	andq	$-2, %rdx
	cmpq	$26, %rdx
	jne	.LBB17_540
# %bb.415:                              # %block.exit.9342
	movq	%rax, (%rcx)
	jne	.LBB17_540
# %bb.416:                              # %block.exit.9350
	movq	(%rcx), %rax
	cmpq	$26, %rax
	je	.LBB17_417
# %bb.418:                              # %block.exit.9350
	cmpq	$27, %rax
	jne	.LBB17_540
# %bb.419:                              # %block.Cidr_Prelude.Basics.Yes.9355
	movq	(%r15), %rdi
	callq	_prim_string_reverse
	movl	$16, %ebx
	movl	$16, %edi
	lock		xaddq	%rdi, _heap_ptr_(%rip)
	movq	$3, (%rdi)
	movq	%rax, 8(%rdi)
	callq	.Lidris_str_head
	lock		xaddq	%rbx, _heap_ptr_(%rip)
	movq	%rax, (%rbx)
	movq	%rdx, 8(%rbx)
	movq	%rbx, %rdi
	callq	.Lidr_Prelude.Chars.isSpace
	movl	$8, %ecx
	lock		xaddq	%rcx, _heap_ptr_(%rip)
	movq	%rax, %rdx
	andq	$-2, %rdx
	cmpq	$6, %rdx
	jne	.LBB17_540
